 System.Data.SQLite

 Timestamp is 510fbd8e (Mon Feb 04 14:54:22 2013)

 Preferred load address is 10000000

 Start         Length     Name                   Class
 0001:00000000 00098e04H .text                   CODE
 0002:00000000 00000214H .idata$5                DATA
 0002:00000214 00000004H .CRT$XCA                DATA
 0002:00000218 00000004H .CRT$XCZ                DATA
 0002:0000021c 00000004H .CRT$XIA                DATA
 0002:00000220 00000004H .CRT$XIAA               DATA
 0002:00000224 00000004H .CRT$XIC                DATA
 0002:00000228 00000004H .CRT$XIZ                DATA
 0002:00000230 00029a68H .rdata                  DATA
 0002:00029c98 00000070H .rdata$debug            DATA
 0002:00029d10 00000004H .rdata$sxdata           DATA
 0002:00029d14 00000004H .rtc$IAA                DATA
 0002:00029d18 00000004H .rtc$IZZ                DATA
 0002:00029d1c 00000004H .rtc$TAA                DATA
 0002:00029d20 00000004H .rtc$TZZ                DATA
 0002:00029d28 00000084H .xdata$x                DATA
 0002:00029dac 00000050H .idata$2                DATA
 0002:00029dfc 00000014H .idata$3                DATA
 0002:00029e10 00000214H .idata$4                DATA
 0002:0002a024 0000085eH .idata$6                DATA
 0002:0002a890 0000204aH .edata                  DATA
 0003:00000000 00000ee0H .data                   DATA
 0003:00000ee0 00001764H .bss                    DATA
 0004:00000000 00000058H .rsrc$01                DATA
 0004:00000060 00000520H .rsrc$02                DATA

  Address         Publics by Value              Rva+Base       Lib:Object

 0000:00000000       __except_list              00000000     <absolute>
 0000:00000001       ___safe_se_handler_count   00000001     <absolute>
 0000:00009876       __fltused                  00009876     <absolute>
 0000:00009876       __ldused                   00009876     <absolute>
 0000:00000000       ___ImageBase               10000000     <linker-defined>
 0001:00000000       _GetFullPathNameW@16       10001000 f   kernel32:KERNEL32.dll
 0001:00000006       _GetFullPathNameA@16       10001006 f   kernel32:KERNEL32.dll
 0001:0000000c       _HeapReAlloc@16            1000100c f   kernel32:KERNEL32.dll
 0001:00000012       _CreateFileA@28            10001012 f   kernel32:KERNEL32.dll
 0001:00000018       _GetFileSize@8             10001018 f   kernel32:KERNEL32.dll
 0001:0000001e       _CreateMutexW@12           1000101e f   kernel32:KERNEL32.dll
 0001:00000024       _SetFilePointer@16         10001024 f   kernel32:KERNEL32.dll
 0001:0000002a       _MapViewOfFile@20          1000102a f   kernel32:KERNEL32.dll
 0001:00000030       _UnmapViewOfFile@4         10001030 f   kernel32:KERNEL32.dll
 0001:00000036       _SetEndOfFile@4            10001036 f   kernel32:KERNEL32.dll
 0001:0000003c       _FreeLibrary@4             1000103c f   kernel32:KERNEL32.dll
 0001:00000042       _HeapAlloc@12              10001042 f   kernel32:KERNEL32.dll
 0001:00000048       _SystemTimeToFileTime@8    10001048 f   kernel32:KERNEL32.dll
 0001:0000004e       _QueryPerformanceCounter@4 1000104e f   kernel32:KERNEL32.dll
 0001:00000054       _HeapFree@12               10001054 f   kernel32:KERNEL32.dll
 0001:0000005a       _WaitForSingleObject@8     1000105a f   kernel32:KERNEL32.dll
 0001:00000060       _UnlockFile@20             10001060 f   kernel32:KERNEL32.dll
 0001:00000066       _LockFile@20               10001066 f   kernel32:KERNEL32.dll
 0001:0000006c       _OutputDebugStringW@4      1000106c f   kernel32:KERNEL32.dll
 0001:00000072       _GetTickCount@0            10001072 f   kernel32:KERNEL32.dll
 0001:00000078       _UnlockFileEx@20           10001078 f   kernel32:KERNEL32.dll
 0001:0000007e       _GetProcessHeap@0          1000107e f   kernel32:KERNEL32.dll
 0001:00000084       _GetSystemTimeAsFileTime@4 10001084 f   kernel32:KERNEL32.dll
 0001:0000008a       _FormatMessageA@28         1000108a f   kernel32:KERNEL32.dll
 0001:00000090       _WriteFile@20              10001090 f   kernel32:KERNEL32.dll
 0001:00000096       _WideCharToMultiByte@32    10001096 f   kernel32:KERNEL32.dll
 0001:0000009c       _LoadLibraryW@4            1000109c f   kernel32:KERNEL32.dll
 0001:000000a2       _Sleep@4                   100010a2 f   kernel32:KERNEL32.dll
 0001:000000a8       _FormatMessageW@28         100010a8 f   kernel32:KERNEL32.dll
 0001:000000ae       _HeapDestroy@4             100010ae f   kernel32:KERNEL32.dll
 0001:000000b4       _GetFileAttributesA@4      100010b4 f   kernel32:KERNEL32.dll
 0001:000000ba       _HeapCreate@12             100010ba f   kernel32:KERNEL32.dll
 0001:000000c0       _HeapValidate@12           100010c0 f   kernel32:KERNEL32.dll
 0001:000000c6       _GetFileAttributesW@4      100010c6 f   kernel32:KERNEL32.dll
 0001:000000cc       _ReadFile@20               100010cc f   kernel32:KERNEL32.dll
 0001:000000d2       _CreateFileW@28            100010d2 f   kernel32:KERNEL32.dll
 0001:000000d8       _MultiByteToWideChar@24    100010d8 f   kernel32:KERNEL32.dll
 0001:000000de       _FlushFileBuffers@4        100010de f   kernel32:KERNEL32.dll
 0001:000000e4       _GetTempPathW@8            100010e4 f   kernel32:KERNEL32.dll
 0001:000000ea       _GetLastError@0            100010ea f   kernel32:KERNEL32.dll
 0001:000000f0       _GetProcAddress@8          100010f0 f   kernel32:KERNEL32.dll
 0001:000000f6       _HeapSize@12               100010f6 f   kernel32:KERNEL32.dll
 0001:000000fc       _LockFileEx@24             100010fc f   kernel32:KERNEL32.dll
 0001:00000102       _GetDiskFreeSpaceW@20      10001102 f   kernel32:KERNEL32.dll
 0001:00000108       _LoadLibraryA@4            10001108 f   kernel32:KERNEL32.dll
 0001:0000010e       _CreateFileMappingW@24     1000110e f   kernel32:KERNEL32.dll
 0001:00000114       _GetDiskFreeSpaceA@20      10001114 f   kernel32:KERNEL32.dll
 0001:0000011a       _GetSystemInfo@4           1000111a f   kernel32:KERNEL32.dll
 0001:00000120       _GetFileAttributesExW@12   10001120 f   kernel32:KERNEL32.dll
 0001:00000126       _OutputDebugStringA@4      10001126 f   kernel32:KERNEL32.dll
 0001:0000012c       _GetVersionExA@4           1000112c f   kernel32:KERNEL32.dll
 0001:00000132       _CloseHandle@4             10001132 f   kernel32:KERNEL32.dll
 0001:00000138       _DeleteFileW@4             10001138 f   kernel32:KERNEL32.dll
 0001:0000013e       _GetCurrentProcessId@0     1000113e f   kernel32:KERNEL32.dll
 0001:00000144       _GetTempPathA@8            10001144 f   kernel32:KERNEL32.dll
 0001:0000014a       _LocalFree@4               1000114a f   kernel32:KERNEL32.dll
 0001:00000150       _GetSystemTime@4           10001150 f   kernel32:KERNEL32.dll
 0001:00000156       _AreFileApisANSI@0         10001156 f   kernel32:KERNEL32.dll
 0001:0000015c       _DeleteFileA@4             1000115c f   kernel32:KERNEL32.dll
 0001:00000162       @__security_check_cookie@4 10001162 f   MSVCRT:secchk.obj
 0001:000001c0       __CRT_INIT@12              100011c0 f   MSVCRT:crtdll.obj
 0001:000004fc       __DllMainCRTStartup@12     100014fc f   MSVCRT:crtdll.obj
 0001:0000051f       ___report_gsfailure        1000151f f   MSVCRT:gs_report.obj
 0001:00000625       ___clean_type_info_names   10001625 f   MSVCRT:tncleanup.obj
 0001:00000631       __onexit                   10001631 f   MSVCRT:atonexit.obj
 0001:000006d6       _atexit                    100016d6 f   MSVCRT:atonexit.obj
 0001:000006ed       __RTC_Initialize           100016ed f   MSVCRT:_initsect_.obj
 0001:00000713       __RTC_Terminate            10001713 f   MSVCRT:_initsect_.obj
 0001:00000740       __ValidateImageBase        10001740 f   MSVCRT:pesect.obj
 0001:00000780       __FindPESection            10001780 f   MSVCRT:pesect.obj
 0001:000007d0       __IsNonwritableInCurrentImage 100017d0 f   MSVCRT:pesect.obj
 0001:0000088e       __initterm                 1000188e f   MSVCRT:MSVCR90.dll
 0001:00000894       __initterm_e               10001894 f   MSVCRT:MSVCR90.dll
 0001:0000089a       __amsg_exit                1000189a f   MSVCRT:MSVCR90.dll
 0001:000008a0       ___CppXcptFilter           100018a0 f   MSVCRT:MSVCR90.dll
 0001:000008a6       _DllMain@12                100018a6 f   MSVCRT:dllmain.obj
 0001:000008cc       __SEH_prolog4              100018cc f   MSVCRT:sehprolg4.obj
 0001:00000911       __SEH_epilog4              10001911 f   MSVCRT:sehprolg4.obj
 0001:00000925       __except_handler4          10001925 f   MSVCRT:chandler4gs.obj
 0001:0000094a       ___security_init_cookie    1000194a f   MSVCRT:gs_support.obj
 0001:000009e0       __crt_debugger_hook        100019e0 f   MSVCRT:MSVCR90.dll
 0001:000009e6       ___clean_type_info_names_internal 100019e6 f   MSVCRT:MSVCR90.dll
 0001:000009ec       __unlock                   100019ec f   MSVCRT:MSVCR90.dll
 0001:000009f2       ___dllonexit               100019f2 f   MSVCRT:MSVCR90.dll
 0001:000009f8       __lock                     100019f8 f   MSVCRT:MSVCR90.dll
 0001:000009fe       __except_handler4_common   100019fe f   MSVCRT:MSVCR90.dll
 0001:00000a70       ?System.Data.SQLite.SQLiteConvert..ctor@@2002011180801171 10001a70 f   System.Data.SQLite.netmodule
 0001:00000a94       ?System.Data.SQLite.SQLiteConvert.ToUTF8@@00011N050O 10001a94 f   System.Data.SQLite.netmodule
 0001:00000ad0       ?System.Data.SQLite.SQLiteConvert.ToUTF8@@20011N051169 10001ad0 f   System.Data.SQLite.netmodule
 0001:00000aec       ?System.Data.SQLite.SQLiteConvert.ToString@@20020O1808 10001aec f   System.Data.SQLite.netmodule
 0001:00000b00       ?System.Data.SQLite.SQLiteConvert.UTF8ToString@@00020O1808 10001b00 f   System.Data.SQLite.netmodule
 0001:00000b54       ?System.Data.SQLite.SQLiteConvert.ToDateTime@@200111690O 10001b54 f   System.Data.SQLite.netmodule
 0001:00000b74       ?System.Data.SQLite.SQLiteConvert.ToDateTime@@000311690O1180801171 10001b74 f   System.Data.SQLite.netmodule
 0001:00000c40       ?System.Data.SQLite.SQLiteConvert.ToDateTime@@200111690N 10001c40 f   System.Data.SQLite.netmodule
 0001:00000c5c       ?System.Data.SQLite.SQLiteConvert.ToDateTime@@000211690N1171 10001c5c f   System.Data.SQLite.netmodule
 0001:00000c7c       ?System.Data.SQLite.SQLiteConvert.ToJulianDay@@00010N1169 10001c7c f   System.Data.SQLite.netmodule
 0001:00000c98       ?System.Data.SQLite.SQLiteConvert.ToUnixEpoch@@00010K1169 10001c98 f   System.Data.SQLite.netmodule
 0001:00000cc0       ?System.Data.SQLite.SQLiteConvert.GetDateTimeKindFormat@@00010O1171 10001cc0 f   System.Data.SQLite.netmodule
 0001:00000cdc       ?System.Data.SQLite.SQLiteConvert.ToString@@20010O1169 10001cdc f   System.Data.SQLite.netmodule
 0001:00000dcc       ?System.Data.SQLite.SQLiteConvert.ToDateTime@@200211691808 10001dcc f   System.Data.SQLite.netmodule
 0001:00000de8       ?System.Data.SQLite.SQLiteConvert.Split@@00021N0O0O03 10001de8 f   System.Data.SQLite.netmodule
 0001:00000f44       ?System.Data.SQLite.SQLiteConvert.ToBoolean@@0001021M 10001f44 f   System.Data.SQLite.netmodule
 0001:00000f6c       ?System.Data.SQLite.SQLiteConvert.ToBoolean@@0001020O 10001f6c f   System.Data.SQLite.netmodule
 0001:00001068       ?System.Data.SQLite.SQLiteConvert.ColumnToType@@0003011281040812808M 10002068 f   System.Data.SQLite.netmodule
 0001:00001094       ?System.Data.SQLite.SQLiteConvert.SQLiteTypeToType@@0001127512808M 10002094 f   System.Data.SQLite.netmodule
 0001:000010c4       ?System.Data.SQLite.SQLiteConvert.TypeToDbType@@000111791275 100020c4 f   System.Data.SQLite.netmodule
 0001:00001108       ?System.Data.SQLite.SQLiteConvert.DbTypeToColumnSize@@0001081179 10002108 f   System.Data.SQLite.netmodule
 0001:0000111c       ?System.Data.SQLite.SQLiteConvert.DbTypeToNumericPrecision@@00011M1179 1000211c f   System.Data.SQLite.netmodule
 0001:00001130       ?System.Data.SQLite.SQLiteConvert.DbTypeToNumericScale@@00011M1179 10002130 f   System.Data.SQLite.netmodule
 0001:00001144       ?System.Data.SQLite.SQLiteConvert.DbTypeToTypeName@@00010O1179 10002144 f   System.Data.SQLite.netmodule
 0001:000011a4       ?System.Data.SQLite.SQLiteConvert.DbTypeToType@@000112751179 100021a4 f   System.Data.SQLite.netmodule
 0001:000011b8       ?System.Data.SQLite.SQLiteConvert.TypeToAffinity@@0001117M1275 100021b8 f   System.Data.SQLite.netmodule
 0001:000011f8       ?System.Data.SQLite.SQLiteConvert.TypeNameToDbType@@000111790O 100021f8 f   System.Data.SQLite.netmodule
 0001:0000175c       ?System.Data.SQLite.SQLiteConvert..cctor@@000001 1000275c f   System.Data.SQLite.netmodule
 0001:00001f54       ?System.Data.SQLite.SQLiteBase..ctor@@2002011180801171 10002f54 f   System.Data.SQLite.netmodule
 0001:00001f6c       ?System.Data.SQLite.SQLiteBase.Dispose@@200001 10002f6c f   System.Data.SQLite.netmodule
 0001:00001f88       ?System.Data.SQLite.SQLiteBase.CheckDisposed@@200001 10002f88 f   System.Data.SQLite.netmodule
 0001:00001fb4       ?System.Data.SQLite.SQLiteBase.Dispose@@20010102 10002fb4 f   System.Data.SQLite.netmodule
 0001:00001fd0       ?System.Data.SQLite.SQLiteBase.Finalize@@200001 10002fd0 f   System.Data.SQLite.netmodule
 0001:0000200c       ?System.Data.SQLite.SQLiteBase.GetLastError@@00020O12811418 1000300c f   System.Data.SQLite.netmodule
 0001:00002084       ?System.Data.SQLite.SQLiteBase.FinishBackup@@00020112811418 10003084 f   System.Data.SQLite.netmodule
 0001:000020e4       ?System.Data.SQLite.SQLiteBase.FinalizeStatement@@00020112811418 100030e4 f   System.Data.SQLite.netmodule
 0001:00002144       ?System.Data.SQLite.SQLiteBase.CloseConnection@@00020112811418 10003144 f   System.Data.SQLite.netmodule
 0001:000021a8       ?System.Data.SQLite.SQLiteBase.ResetConnection@@00020112811418 100031a8 f   System.Data.SQLite.netmodule
 0001:00002274       ?System.Data.SQLite.SQLiteBase.IsAutocommit@@00020212811418 10003274 f   System.Data.SQLite.netmodule
 0001:000022dc       ?System.Data.SQLite.SQLite3..ctor@@2002011180801171 100032dc f   System.Data.SQLite.netmodule
 0001:000022f4       ?System.Data.SQLite.SQLite3.CheckDisposed@@200001 100032f4 f   System.Data.SQLite.netmodule
 0001:00002320       ?System.Data.SQLite.SQLite3.Dispose@@20010102 10003320 f   System.Data.SQLite.netmodule
 0001:00002368       ?System.Data.SQLite.SQLite3.Close@@200001 10003368 f   System.Data.SQLite.netmodule
 0001:000023c8       ?System.Data.SQLite.SQLite3.Cancel@@200001 100033c8 f   System.Data.SQLite.netmodule
 0001:000023e8       ?System.Data.SQLite.SQLite3.get_Version@@20000O 100033e8 f   System.Data.SQLite.netmodule
 0001:000023fc       ?System.Data.SQLite.SQLite3.get_DefineConstants@@00000O 100033fc f   System.Data.SQLite.netmodule
 0001:0000247c       ?System.Data.SQLite.SQLite3.get_SQLiteVersion@@00000O 1000347c f   System.Data.SQLite.netmodule
 0001:00002494       ?System.Data.SQLite.SQLite3.get_SQLiteSourceId@@00000O 10003494 f   System.Data.SQLite.netmodule
 0001:000024ac       ?System.Data.SQLite.SQLite3.get_AutoCommit@@200002 100034ac f   System.Data.SQLite.netmodule
 0001:000024d0       ?System.Data.SQLite.SQLite3.get_LastInsertRowId@@20000K 100034d0 f   System.Data.SQLite.netmodule
 0001:000024f0       ?System.Data.SQLite.SQLite3.get_Changes@@200008 100034f0 f   System.Data.SQLite.netmodule
 0001:00002510       ?System.Data.SQLite.SQLite3.get_MemoryUsed@@20000K 10003510 f   System.Data.SQLite.netmodule
 0001:00002524       ?System.Data.SQLite.SQLite3.get_MemoryHighwater@@20000K 10003524 f   System.Data.SQLite.netmodule
 0001:00002538       ?System.Data.SQLite.SQLite3.SetMemoryStatus@@20010802 10003538 f   System.Data.SQLite.netmodule
 0001:0000254c       ?System.Data.SQLite.SQLite3.StaticSetMemoryStatus@@00010802 1000354c f   System.Data.SQLite.netmodule
 0001:0000256c       ?System.Data.SQLite.SQLite3.Shutdown@@200008 1000356c f   System.Data.SQLite.netmodule
 0001:00002580       ?System.Data.SQLite.SQLite3.IsOpen@@200002 10003580 f   System.Data.SQLite.netmodule
 0001:0000259c       ?System.Data.SQLite.SQLite3.Open@@2005010O112811240802 1000359c f   System.Data.SQLite.netmodule
 0001:0000265c       ?System.Data.SQLite.SQLite3.ClearPool@@200001 1000365c f   System.Data.SQLite.netmodule
 0001:00002674       ?System.Data.SQLite.SQLite3.CountPool@@200008 10003674 f   System.Data.SQLite.netmodule
 0001:000026a0       ?System.Data.SQLite.SQLite3.SetTimeout@@20010108 100036a0 f   System.Data.SQLite.netmodule
 0001:000026d0       ?System.Data.SQLite.SQLite3.Step@@200102128104 100036d0 f   System.Data.SQLite.netmodule
 0001:00002778       ?System.Data.SQLite.SQLite3.Reset@@200108128104 10003778 f   System.Data.SQLite.netmodule
 0001:00002828       ?System.Data.SQLite.SQLite3.GetLastError@@20000O 10003828 f   System.Data.SQLite.netmodule
 0001:0000284c       ?System.Data.SQLite.SQLite3.Prepare@@200512810412380O12810409100O 1000384c f   System.Data.SQLite.netmodule
 0001:00002b9c       ?System.Data.SQLite.SQLite3.LogBind@@00020112811808 10003b9c f   System.Data.SQLite.netmodule
 0001:00002bcc       ?System.Data.SQLite.SQLite3.LogBind@@00030112811808122N 10003bcc f   System.Data.SQLite.netmodule
 0001:00002c18       ?System.Data.SQLite.SQLite3.FormatDateTime@@00010O1169 10003c18 f   System.Data.SQLite.netmodule
 0001:00002c78       ?System.Data.SQLite.SQLite3.LogBind@@000301128118081169 10003c78 f   System.Data.SQLite.netmodule
 0001:00002ccc       ?System.Data.SQLite.SQLite3.LogBind@@000301128118080O 10003ccc f   System.Data.SQLite.netmodule
 0001:00002d28       ?System.Data.SQLite.SQLite3.ToHexadecimalString@@00010O1N05 10003d28 f   System.Data.SQLite.netmodule
 0001:00002d74       ?System.Data.SQLite.SQLite3.LogBind@@000301128118081N05 10003d74 f   System.Data.SQLite.netmodule
 0001:00002dd4       ?System.Data.SQLite.SQLite3.Bind_Double@@2004011281041128080N 10003dd4 f   System.Data.SQLite.netmodule
 0001:00002e1c       ?System.Data.SQLite.SQLite3.Bind_Int32@@20040112810411280808 10003e1c f   System.Data.SQLite.netmodule
 0001:00002e64       ?System.Data.SQLite.SQLite3.Bind_UInt32@@20040112810411280809 10003e64 f   System.Data.SQLite.netmodule
 0001:00002eac       ?System.Data.SQLite.SQLite3.Bind_Int64@@2004011281041128080K 10003eac f   System.Data.SQLite.netmodule
 0001:00002ef4       ?System.Data.SQLite.SQLite3.Bind_UInt64@@2004011281041128080L 10003ef4 f   System.Data.SQLite.netmodule
 0001:00002f3c       ?System.Data.SQLite.SQLite3.Bind_Text@@2004011281041128080O 10003f3c f   System.Data.SQLite.netmodule
 0001:00002fa0       ?System.Data.SQLite.SQLite3.Bind_DateTime@@2004011281041128081169 10003fa0 f   System.Data.SQLite.netmodule
 0001:00003100       ?System.Data.SQLite.SQLite3.Bind_Blob@@2004011281041128081N05 10004100 f   System.Data.SQLite.netmodule
 0001:00003150       ?System.Data.SQLite.SQLite3.Bind_Null@@200301128104112808 10004150 f   System.Data.SQLite.netmodule
 0001:00003190       ?System.Data.SQLite.SQLite3.Bind_ParamCount@@2002081281041128 10004190 f   System.Data.SQLite.netmodule
 0001:000031dc       ?System.Data.SQLite.SQLite3.Bind_ParamName@@20030O128104112808 100041dc f   System.Data.SQLite.netmodule
 0001:00003230       ?System.Data.SQLite.SQLite3.Bind_ParamIndex@@20030812810411280O 10004230 f   System.Data.SQLite.netmodule
 0001:00003284       ?System.Data.SQLite.SQLite3.ColumnCount@@200108128104 10004284 f   System.Data.SQLite.netmodule
 0001:000032a4       ?System.Data.SQLite.SQLite3.ColumnName@@20020O12810408 100042a4 f   System.Data.SQLite.netmodule
 0001:000032cc       ?System.Data.SQLite.SQLite3.ColumnAffinity@@2002117M12810408 100042cc f   System.Data.SQLite.netmodule
 0001:000032ec       ?System.Data.SQLite.SQLite3.ColumnType@@20030O1281040810117M 100042ec f   System.Data.SQLite.netmodule
 0001:0000334c       ?System.Data.SQLite.SQLite3.ColumnIndex@@2002081281040O 1000434c f   System.Data.SQLite.netmodule
 0001:00003384       ?System.Data.SQLite.SQLite3.ColumnOriginalName@@20020O12810408 10004384 f   System.Data.SQLite.netmodule
 0001:000033ac       ?System.Data.SQLite.SQLite3.ColumnDatabaseName@@20020O12810408 100043ac f   System.Data.SQLite.netmodule
 0001:000033d4       ?System.Data.SQLite.SQLite3.ColumnTableName@@20020O12810408 100043d4 f   System.Data.SQLite.netmodule
 0001:000033fc       ?System.Data.SQLite.SQLite3.ColumnMetaData@@2008010O0O0O100O100O100210021002 100043fc f   System.Data.SQLite.netmodule
 0001:00003478       ?System.Data.SQLite.SQLite3.GetDouble@@20020N12810408 10004478 f   System.Data.SQLite.netmodule
 0001:00003498       ?System.Data.SQLite.SQLite3.GetInt32@@20020812810408 10004498 f   System.Data.SQLite.netmodule
 0001:000034b8       ?System.Data.SQLite.SQLite3.GetInt64@@20020K12810408 100044b8 f   System.Data.SQLite.netmodule
 0001:000034d8       ?System.Data.SQLite.SQLite3.GetText@@20020O12810408 100044d8 f   System.Data.SQLite.netmodule
 0001:00003500       ?System.Data.SQLite.SQLite3.GetDateTime@@2002116912810408 10004500 f   System.Data.SQLite.netmodule
 0001:00003528       ?System.Data.SQLite.SQLite3.GetBytes@@20060K12810408081N050808 10004528 f   System.Data.SQLite.netmodule
 0001:000035a4       ?System.Data.SQLite.SQLite3.GetChars@@20060K12810408081N030808 100045a4 f   System.Data.SQLite.netmodule
 0001:00003600       ?System.Data.SQLite.SQLite3.IsNull@@20020212810408 10004600 f   System.Data.SQLite.netmodule
 0001:00003618       ?System.Data.SQLite.SQLite3.AggregateCount@@20010818 10004618 f   System.Data.SQLite.netmodule
 0001:0000362c       ?System.Data.SQLite.SQLite3.CreateFunction@@2006010O08021280M41280M41280M8 1000462c f   System.Data.SQLite.netmodule
 0001:000036a4       ?System.Data.SQLite.SQLite3.CreateCollation@@2003010O1280MM1280MM 100046a4 f   System.Data.SQLite.netmodule
 0001:00003704       ?System.Data.SQLite.SQLite3.ContextCollateCompare@@2004081180N4180O0O 10004704 f   System.Data.SQLite.netmodule
 0001:00003760       ?System.Data.SQLite.SQLite3.ContextCollateCompare@@2004081180N4181N031N03 10004760 f   System.Data.SQLite.netmodule
 0001:000037bc       ?System.Data.SQLite.SQLite3.GetCollationSequence@@20021180N81280L418 100047bc f   System.Data.SQLite.netmodule
 0001:00003808       ?System.Data.SQLite.SQLite3.GetParamValueBytes@@20050K18081N050808 10004808 f   System.Data.SQLite.netmodule
 0001:00003868       ?System.Data.SQLite.SQLite3.GetParamValueDouble@@20010N18 10004868 f   System.Data.SQLite.netmodule
 0001:00003880       ?System.Data.SQLite.SQLite3.GetParamValueInt32@@20010818 10004880 f   System.Data.SQLite.netmodule
 0001:00003894       ?System.Data.SQLite.SQLite3.GetParamValueInt64@@20010K18 10004894 f   System.Data.SQLite.netmodule
 0001:000038ac       ?System.Data.SQLite.SQLite3.GetParamValueText@@20010O18 100048ac f   System.Data.SQLite.netmodule
 0001:000038c8       ?System.Data.SQLite.SQLite3.GetParamValueType@@2001117M18 100048c8 f   System.Data.SQLite.netmodule
 0001:000038dc       ?System.Data.SQLite.SQLite3.ReturnBlob@@200201181N05 100048dc f   System.Data.SQLite.netmodule
 0001:000038fc       ?System.Data.SQLite.SQLite3.ReturnDouble@@200201180N 100048fc f   System.Data.SQLite.netmodule
 0001:00003910       ?System.Data.SQLite.SQLite3.ReturnError@@200201180O 10004910 f   System.Data.SQLite.netmodule
 0001:00003930       ?System.Data.SQLite.SQLite3.ReturnInt32@@2002011808 10004930 f   System.Data.SQLite.netmodule
 0001:00003944       ?System.Data.SQLite.SQLite3.ReturnInt64@@200201180K 10004944 f   System.Data.SQLite.netmodule
 0001:00003958       ?System.Data.SQLite.SQLite3.ReturnNull@@20010118 10004958 f   System.Data.SQLite.netmodule
 0001:0000396c       ?System.Data.SQLite.SQLite3.ReturnText@@200201180O 1000496c f   System.Data.SQLite.netmodule
 0001:00003998       ?System.Data.SQLite.SQLite3.AggregateContext@@20011818 10004998 f   System.Data.SQLite.netmodule
 0001:000039ac       ?System.Data.SQLite.SQLite3.SetExtendedResultCodes@@20010102 100049ac f   System.Data.SQLite.netmodule
 0001:000039d4       ?System.Data.SQLite.SQLite3.ResultCode@@200008 100049d4 f   System.Data.SQLite.netmodule
 0001:000039f4       ?System.Data.SQLite.SQLite3.ExtendedResultCode@@200008 100049f4 f   System.Data.SQLite.netmodule
 0001:00003a14       ?System.Data.SQLite.SQLite3.LogMessage@@200201080O 10004a14 f   System.Data.SQLite.netmodule
 0001:00003a30       ?System.Data.SQLite.SQLite3.SetPassword@@2001011N05 10004a30 f   System.Data.SQLite.netmodule
 0001:00003a64       ?System.Data.SQLite.SQLite3.ChangePassword@@2001011N05 10004a64 f   System.Data.SQLite.netmodule
 0001:00003aa0       ?System.Data.SQLite.SQLite3.SetUpdateHook@@2001011240 10004aa0 f   System.Data.SQLite.netmodule
 0001:00003ac4       ?System.Data.SQLite.SQLite3.SetCommitHook@@2001011244 10004ac4 f   System.Data.SQLite.netmodule
 0001:00003ae8       ?System.Data.SQLite.SQLite3.SetTraceCallback@@2001011248 10004ae8 f   System.Data.SQLite.netmodule
 0001:00003b0c       ?System.Data.SQLite.SQLite3.SetRollbackHook@@200101124M 10004b0c f   System.Data.SQLite.netmodule
 0001:00003b30       ?System.Data.SQLite.SQLite3.SetLogCallback@@2001081208 10004b30 f   System.Data.SQLite.netmodule
 0001:00003b50       ?System.Data.SQLite.SQLite3.InitializeBackup@@2003121M12380O0O 10004b50 f   System.Data.SQLite.netmodule
 0001:00003c38       ?System.Data.SQLite.SQLite3.StepBackup@@200302121M081002 10004c38 f   System.Data.SQLite.netmodule
 0001:00003cc4       ?System.Data.SQLite.SQLite3.RemainingBackup@@200108121M 10004cc4 f   System.Data.SQLite.netmodule
 0001:00003d1c       ?System.Data.SQLite.SQLite3.PageCountBackup@@200108121M 10004d1c f   System.Data.SQLite.netmodule
 0001:00003d74       ?System.Data.SQLite.SQLite3.FinishBackup@@200101121M 10004d74 f   System.Data.SQLite.netmodule
 0001:00003dec       ?System.Data.SQLite.SQLite3.IsInitialized@@200002 10004dec f   System.Data.SQLite.netmodule
 0001:00003e00       ?System.Data.SQLite.SQLite3.StaticIsInitialized@@000002 10004e00 f   System.Data.SQLite.netmodule
 0001:00003e7c       ?System.Data.SQLite.SQLite3.GetValue@@20031M1281040812808M 10004e7c f   System.Data.SQLite.netmodule
 0001:00003fa8       ?System.Data.SQLite.SQLite3.GetCursorForTable@@2003081281040808 10004fa8 f   System.Data.SQLite.netmodule
 0001:00003fc8       ?System.Data.SQLite.SQLite3.GetRowIdForCursor@@20020K12810408 10004fc8 f   System.Data.SQLite.netmodule
 0001:00003ff0       ?System.Data.SQLite.SQLite3.GetIndexColumnExtendedInfo@@2006010O0O0O10081008100O 10004ff0 f   System.Data.SQLite.netmodule
 0001:00004044       ?System.Data.SQLite.SQLite3.FileControl@@2003080O0818 10005044 f   System.Data.SQLite.netmodule
 0001:00004070       ?System.Data.SQLite.SQLite3..cctor@@000001 10005070 f   System.Data.SQLite.netmodule
 0001:00004088       ?System.Data.SQLite.SQLite3_UTF16..ctor@@2002011180801171 10005088 f   System.Data.SQLite.netmodule
 0001:000040a0       ?System.Data.SQLite.SQLite3_UTF16.CheckDisposed@@200001 100050a0 f   System.Data.SQLite.netmodule
 0001:000040cc       ?System.Data.SQLite.SQLite3_UTF16.Dispose@@20010102 100050cc f   System.Data.SQLite.netmodule
 0001:00004110       ?System.Data.SQLite.SQLite3_UTF16.ToString@@20020O1808 10005110 f   System.Data.SQLite.netmodule
 0001:0000412c       ?System.Data.SQLite.SQLite3_UTF16.UTF16ToString@@00020O1808 1000512c f   System.Data.SQLite.netmodule
 0001:00004164       ?System.Data.SQLite.SQLite3_UTF16.Open@@2005010O112811240802 10005164 f   System.Data.SQLite.netmodule
 0001:00004224       ?System.Data.SQLite.SQLite3_UTF16.Bind_DateTime@@2004011281041128081169 10005224 f   System.Data.SQLite.netmodule
 0001:0000428c       ?System.Data.SQLite.SQLite3_UTF16.Bind_Text@@2004011281041128080O 1000528c f   System.Data.SQLite.netmodule
 0001:000042e0       ?System.Data.SQLite.SQLite3_UTF16.GetDateTime@@2002116912810408 100052e0 f   System.Data.SQLite.netmodule
 0001:000042fc       ?System.Data.SQLite.SQLite3_UTF16.ColumnName@@20020O12810408 100052fc f   System.Data.SQLite.netmodule
 0001:00004324       ?System.Data.SQLite.SQLite3_UTF16.GetText@@20020O12810408 10005324 f   System.Data.SQLite.netmodule
 0001:0000434c       ?System.Data.SQLite.SQLite3_UTF16.ColumnOriginalName@@20020O12810408 1000534c f   System.Data.SQLite.netmodule
 0001:00004374       ?System.Data.SQLite.SQLite3_UTF16.ColumnDatabaseName@@20020O12810408 10005374 f   System.Data.SQLite.netmodule
 0001:0000439c       ?System.Data.SQLite.SQLite3_UTF16.ColumnTableName@@20020O12810408 1000539c f   System.Data.SQLite.netmodule
 0001:000043c4       ?System.Data.SQLite.SQLite3_UTF16.GetParamValueText@@20010O18 100053c4 f   System.Data.SQLite.netmodule
 0001:000043e0       ?System.Data.SQLite.SQLite3_UTF16.ReturnError@@200201180O 100053e0 f   System.Data.SQLite.netmodule
 0001:000043fc       ?System.Data.SQLite.SQLite3_UTF16.ReturnText@@200201180O 100053fc f   System.Data.SQLite.netmodule
 0001:00004420       ?System.Data.SQLite.SQLiteBackup..ctor@@200601121012811M181N05181N05 10005420 f   System.Data.SQLite.netmodule
 0001:00004460       ?System.Data.SQLite.SQLiteBackup.Dispose@@200001 10005460 f   System.Data.SQLite.netmodule
 0001:0000447c       ?System.Data.SQLite.SQLiteBackup.CheckDisposed@@200001 1000547c f   System.Data.SQLite.netmodule
 0001:000044a8       ?System.Data.SQLite.SQLiteBackup.Dispose@@20010102 100054a8 f   System.Data.SQLite.netmodule
 0001:0000450c       ?System.Data.SQLite.SQLiteBackup.Finalize@@200001 1000550c f   System.Data.SQLite.netmodule
 0001:00004548       ?System.Data.SQLite.SQLiteCommand..ctor@@200001 10005548 f   System.Data.SQLite.netmodule
 0001:00004560       ?System.Data.SQLite.SQLiteCommand..ctor@@2001010O 10005560 f   System.Data.SQLite.netmodule
 0001:00004578       ?System.Data.SQLite.SQLiteCommand..ctor@@2002010O1238 10005578 f   System.Data.SQLite.netmodule
 0001:00004590       ?System.Data.SQLite.SQLiteCommand..ctor@@2001011238 10005590 f   System.Data.SQLite.netmodule
 0001:000045a8       ?System.Data.SQLite.SQLiteCommand..ctor@@2001011230 100055a8 f   System.Data.SQLite.netmodule
 0001:00004654       ?System.Data.SQLite.SQLiteCommand..ctor@@2003010O1238128108 10005654 f   System.Data.SQLite.netmodule
 0001:000046b4       ?System.Data.SQLite.SQLiteCommand.Check@@0001011230 100056b4 f   System.Data.SQLite.netmodule
 0001:000046d8       ?System.Data.SQLite.SQLiteCommand.CheckDisposed@@200001 100056d8 f   System.Data.SQLite.netmodule
 0001:00004704       ?System.Data.SQLite.SQLiteCommand.Dispose@@20010102 10005704 f   System.Data.SQLite.netmodule
 0001:000047b0       ?System.Data.SQLite.SQLiteCommand.ClearCommands@@200001 100057b0 f   System.Data.SQLite.netmodule
 0001:00004850       ?System.Data.SQLite.SQLiteCommand.BuildNextCommand@@2000128104 10005850 f   System.Data.SQLite.netmodule
 0001:00004974       ?System.Data.SQLite.SQLiteCommand.GetStatement@@200112810408 10005974 f   System.Data.SQLite.netmodule
 0001:000049c8       ?System.Data.SQLite.SQLiteCommand.Cancel@@200001 100059c8 f   System.Data.SQLite.netmodule
 0001:00004a00       ?System.Data.SQLite.SQLiteCommand.get_CommandText@@20000O 10005a00 f   System.Data.SQLite.netmodule
 0001:00004a1c       ?System.Data.SQLite.SQLiteCommand.set_CommandText@@2001010O 10005a1c f   System.Data.SQLite.netmodule
 0001:00004a74       ?System.Data.SQLite.SQLiteCommand.get_CommandTimeout@@200008 10005a74 f   System.Data.SQLite.netmodule
 0001:00004a90       ?System.Data.SQLite.SQLiteCommand.set_CommandTimeout@@20010108 10005a90 f   System.Data.SQLite.netmodule
 0001:00004aac       ?System.Data.SQLite.SQLiteCommand.get_CommandType@@200011808N 10005aac f   System.Data.SQLite.netmodule
 0001:00004ac0       ?System.Data.SQLite.SQLiteCommand.set_CommandType@@20010111808N 10005ac0 f   System.Data.SQLite.netmodule
 0001:00004ae0       ?System.Data.SQLite.SQLiteCommand.CreateDbParameter@@2000124N 10005ae0 f   System.Data.SQLite.netmodule
 0001:00004af4       ?System.Data.SQLite.SQLiteCommand.CreateParameter@@20001280PM 10005af4 f   System.Data.SQLite.netmodule
 0001:00004b0c       ?System.Data.SQLite.SQLiteCommand.get_Connection@@20001238 10005b0c f   System.Data.SQLite.netmodule
 0001:00004b28       ?System.Data.SQLite.SQLiteCommand.set_Connection@@2001011238 10005b28 f   System.Data.SQLite.netmodule
 0001:00004b8c       ?System.Data.SQLite.SQLiteCommand.get_DbConnection@@20001221 10005b8c f   System.Data.SQLite.netmodule
 0001:00004ba0       ?System.Data.SQLite.SQLiteCommand.set_DbConnection@@2001011221 10005ba0 f   System.Data.SQLite.netmodule
 0001:00004bbc       ?System.Data.SQLite.SQLiteCommand.get_Parameters@@2000128100 10005bbc f   System.Data.SQLite.netmodule
 0001:00004bd8       ?System.Data.SQLite.SQLiteCommand.get_DbParameterCollection@@20001251 10005bd8 f   System.Data.SQLite.netmodule
 0001:00004bec       ?System.Data.SQLite.SQLiteCommand.get_Transaction@@2000128108 10005bec f   System.Data.SQLite.netmodule
 0001:00004c08       ?System.Data.SQLite.SQLiteCommand.set_Transaction@@200101128108 10005c08 f   System.Data.SQLite.netmodule
 0001:00004c80       ?System.Data.SQLite.SQLiteCommand.get_DbTransaction@@20001255 10005c80 f   System.Data.SQLite.netmodule
 0001:00004c94       ?System.Data.SQLite.SQLiteCommand.set_DbTransaction@@2001011255 10005c94 f   System.Data.SQLite.netmodule
 0001:00004cb0       ?System.Data.SQLite.SQLiteCommand.InitializeForReader@@200001 10005cb0 f   System.Data.SQLite.netmodule
 0001:00004d40       ?System.Data.SQLite.SQLiteCommand.ExecuteDbDataReader@@20011239118091 10005d40 f   System.Data.SQLite.netmodule
 0001:00004d54       ?System.Data.SQLite.SQLiteCommand.ExecuteReader@@200112809M118091 10005d54 f   System.Data.SQLite.netmodule
 0001:00004d84       ?System.Data.SQLite.SQLiteCommand.ExecuteReader@@200012809M 10005d84 f   System.Data.SQLite.netmodule
 0001:00004da0       ?System.Data.SQLite.SQLiteCommand.ClearDataReader@@200001 10005da0 f   System.Data.SQLite.netmodule
 0001:00004db4       ?System.Data.SQLite.SQLiteCommand.ExecuteNonQuery@@200008 10005db4 f   System.Data.SQLite.netmodule
 0001:00004e08       ?System.Data.SQLite.SQLiteCommand.ExecuteScalar@@20001M 10005e08 f   System.Data.SQLite.netmodule
 0001:00004e64       ?System.Data.SQLite.SQLiteCommand.Prepare@@200001 10005e64 f   System.Data.SQLite.netmodule
 0001:00004e78       ?System.Data.SQLite.SQLiteCommand.get_UpdatedRowSource@@2000118085 10005e78 f   System.Data.SQLite.netmodule
 0001:00004e94       ?System.Data.SQLite.SQLiteCommand.set_UpdatedRowSource@@200101118085 10005e94 f   System.Data.SQLite.netmodule
 0001:00004eb0       ?System.Data.SQLite.SQLiteCommand.get_DesignTimeVisible@@200002 10005eb0 f   System.Data.SQLite.netmodule
 0001:00004ecc       ?System.Data.SQLite.SQLiteCommand.set_DesignTimeVisible@@20010102 10005ecc f   System.Data.SQLite.netmodule
 0001:00004eec       ?System.Data.SQLite.SQLiteCommand.Clone@@20001M 10005eec f   System.Data.SQLite.netmodule
 0001:00004f08       ?System.Data.SQLite.SQLiteCommandBuilder..ctor@@200001 10005f08 f   System.Data.SQLite.netmodule
 0001:00004f1c       ?System.Data.SQLite.SQLiteCommandBuilder..ctor@@200101128098 10005f1c f   System.Data.SQLite.netmodule
 0001:00004f4c       ?System.Data.SQLite.SQLiteCommandBuilder.CheckDisposed@@200001 10005f4c f   System.Data.SQLite.netmodule
 0001:00004f78       ?System.Data.SQLite.SQLiteCommandBuilder.Dispose@@20010102 10005f78 f   System.Data.SQLite.netmodule
 0001:00004fbc       ?System.Data.SQLite.SQLiteCommandBuilder.ApplyParameterInfo@@200401124N12809511809902 10005fbc f   System.Data.SQLite.netmodule
 0001:00004fe8       ?System.Data.SQLite.SQLiteCommandBuilder.GetParameterName@@20010O0O 10005fe8 f   System.Data.SQLite.netmodule
 0001:00005010       ?System.Data.SQLite.SQLiteCommandBuilder.GetParameterName@@20010O08 10006010 f   System.Data.SQLite.netmodule
 0001:00005040       ?System.Data.SQLite.SQLiteCommandBuilder.GetParameterPlaceholder@@20010O08 10006040 f   System.Data.SQLite.netmodule
 0001:00005054       ?System.Data.SQLite.SQLiteCommandBuilder.SetRowUpdatingHandler@@2001011235 10006054 f   System.Data.SQLite.netmodule
 0001:0000509c       ?System.Data.SQLite.SQLiteCommandBuilder.RowUpdatingEventHandler@@2002011M12809N 1000609c f   System.Data.SQLite.netmodule
 0001:000050b0       ?System.Data.SQLite.SQLiteCommandBuilder.get_DataAdapter@@2000128098 100060b0 f   System.Data.SQLite.netmodule
 0001:000050d0       ?System.Data.SQLite.SQLiteCommandBuilder.set_DataAdapter@@200101128098 100060d0 f   System.Data.SQLite.netmodule
 0001:000050ec       ?System.Data.SQLite.SQLiteCommandBuilder.GetDeleteCommand@@20001230 100060ec f   System.Data.SQLite.netmodule
 0001:0000510c       ?System.Data.SQLite.SQLiteCommandBuilder.GetDeleteCommand@@2001123002 1000610c f   System.Data.SQLite.netmodule
 0001:0000512c       ?System.Data.SQLite.SQLiteCommandBuilder.GetUpdateCommand@@20001230 1000612c f   System.Data.SQLite.netmodule
 0001:0000514c       ?System.Data.SQLite.SQLiteCommandBuilder.GetUpdateCommand@@2001123002 1000614c f   System.Data.SQLite.netmodule
 0001:0000516c       ?System.Data.SQLite.SQLiteCommandBuilder.GetInsertCommand@@20001230 1000616c f   System.Data.SQLite.netmodule
 0001:0000518c       ?System.Data.SQLite.SQLiteCommandBuilder.GetInsertCommand@@2001123002 1000618c f   System.Data.SQLite.netmodule
 0001:000051ac       ?System.Data.SQLite.SQLiteCommandBuilder.get_CatalogLocation@@20001180K1 100061ac f   System.Data.SQLite.netmodule
 0001:000051c8       ?System.Data.SQLite.SQLiteCommandBuilder.set_CatalogLocation@@2001011180K1 100061c8 f   System.Data.SQLite.netmodule
 0001:000051e4       ?System.Data.SQLite.SQLiteCommandBuilder.get_CatalogSeparator@@20000O 100061e4 f   System.Data.SQLite.netmodule
 0001:00005200       ?System.Data.SQLite.SQLiteCommandBuilder.set_CatalogSeparator@@2001010O 10006200 f   System.Data.SQLite.netmodule
 0001:0000521c       ?System.Data.SQLite.SQLiteCommandBuilder.get_QuotePrefix@@20000O 1000621c f   System.Data.SQLite.netmodule
 0001:00005238       ?System.Data.SQLite.SQLiteCommandBuilder.set_QuotePrefix@@2001010O 10006238 f   System.Data.SQLite.netmodule
 0001:00005254       ?System.Data.SQLite.SQLiteCommandBuilder.get_QuoteSuffix@@20000O 10006254 f   System.Data.SQLite.netmodule
 0001:00005270       ?System.Data.SQLite.SQLiteCommandBuilder.set_QuoteSuffix@@2001010O 10006270 f   System.Data.SQLite.netmodule
 0001:0000528c       ?System.Data.SQLite.SQLiteCommandBuilder.QuoteIdentifier@@20010O0O 1000628c f   System.Data.SQLite.netmodule
 0001:000052f4       ?System.Data.SQLite.SQLiteCommandBuilder.UnquoteIdentifier@@20010O0O 100062f4 f   System.Data.SQLite.netmodule
 0001:00005398       ?System.Data.SQLite.SQLiteCommandBuilder.get_SchemaSeparator@@20000O 10006398 f   System.Data.SQLite.netmodule
 0001:000053b4       ?System.Data.SQLite.SQLiteCommandBuilder.set_SchemaSeparator@@2001010O 100063b4 f   System.Data.SQLite.netmodule
 0001:000053d0       ?System.Data.SQLite.SQLiteCommandBuilder.GetSchemaTable@@20011280K51215 100063d0 f   System.Data.SQLite.netmodule
 0001:00005428       ?System.Data.SQLite.SQLiteCommandBuilder.HasSchemaPrimaryKey@@2001021280K5 10006428 f   System.Data.SQLite.netmodule
 0001:000054b0       ?System.Data.SQLite.SQLiteCommandBuilder.ResetIsUniqueSchemaColumn@@2001011280K5 100064b0 f   System.Data.SQLite.netmodule
 0001:00005554       ?System.Data.SQLite.SQLiteConnection.add__updateHandler@@2001011254 10006554 f   System.Data.SQLite.netmodule
 0001:00005578       ?System.Data.SQLite.SQLiteConnection.remove__updateHandler@@2001011254 10006578 f   System.Data.SQLite.netmodule
 0001:0000559c       ?System.Data.SQLite.SQLiteConnection.add__commitHandler@@2001011250 1000659c f   System.Data.SQLite.netmodule
 0001:000055c0       ?System.Data.SQLite.SQLiteConnection.remove__commitHandler@@2001011250 100065c0 f   System.Data.SQLite.netmodule
 0001:000055e4       ?System.Data.SQLite.SQLiteConnection.add__traceHandler@@2001011258 100065e4 f   System.Data.SQLite.netmodule
 0001:00005608       ?System.Data.SQLite.SQLiteConnection.remove__traceHandler@@2001011258 10006608 f   System.Data.SQLite.netmodule
 0001:0000562c       ?System.Data.SQLite.SQLiteConnection.add__rollbackHandler@@2001011280L1 1000662c f   System.Data.SQLite.netmodule
 0001:00005650       ?System.Data.SQLite.SQLiteConnection.remove__rollbackHandler@@2001011280L1 10006650 f   System.Data.SQLite.netmodule
 0001:00005674       ?System.Data.SQLite.SQLiteConnection.add_StateChange@@2001011280L5 10006674 f   System.Data.SQLite.netmodule
 0001:00005698       ?System.Data.SQLite.SQLiteConnection.remove_StateChange@@2001011280L5 10006698 f   System.Data.SQLite.netmodule
 0001:000056bc       ?System.Data.SQLite.SQLiteConnection..ctor@@200001 100066bc f   System.Data.SQLite.netmodule
 0001:000056d4       ?System.Data.SQLite.SQLiteConnection..ctor@@2001010O 100066d4 f   System.Data.SQLite.netmodule
 0001:00005718       ?System.Data.SQLite.SQLiteConnection..ctor@@2001011238 10006718 f   System.Data.SQLite.netmodule
 0001:00005860       ?System.Data.SQLite.SQLiteConnection.BackupDatabase@@20060112380O0O08125M08 10006860 f   System.Data.SQLite.netmodule
 0001:000059a8       ?System.Data.SQLite.SQLiteConnection.Check@@0001011238 100069a8 f   System.Data.SQLite.netmodule
 0001:00005a34       ?System.Data.SQLite.SQLiteConnection.CheckDisposed@@200001 10006a34 f   System.Data.SQLite.netmodule
 0001:00005a60       ?System.Data.SQLite.SQLiteConnection.Dispose@@20010102 10006a60 f   System.Data.SQLite.netmodule
 0001:00005aa8       ?System.Data.SQLite.SQLiteConnection.Clone@@20001M 10006aa8 f   System.Data.SQLite.netmodule
 0001:00005ac4       ?System.Data.SQLite.SQLiteConnection.CreateFile@@0001010O 10006ac4 f   System.Data.SQLite.netmodule
 0001:00005ae0       ?System.Data.SQLite.SQLiteConnection.OnStateChange@@2001011180KN 10006ae0 f   System.Data.SQLite.netmodule
 0001:00005b1c       ?System.Data.SQLite.SQLiteConnection.BeginTransaction@@20021281081180K902 10006b1c f   System.Data.SQLite.netmodule
 0001:00005b4c       ?System.Data.SQLite.SQLiteConnection.BeginTransaction@@200112810802 10006b4c f   System.Data.SQLite.netmodule
 0001:00005b7c       ?System.Data.SQLite.SQLiteConnection.BeginTransaction@@20011281081180K9 10006b7c f   System.Data.SQLite.netmodule
 0001:00005b9c       ?System.Data.SQLite.SQLiteConnection.BeginTransaction@@2000128108 10006b9c f   System.Data.SQLite.netmodule
 0001:00005bc0       ?System.Data.SQLite.SQLiteConnection.BeginDbTransaction@@200112551180K9 10006bc0 f   System.Data.SQLite.netmodule
 0001:00005c14       ?System.Data.SQLite.SQLiteConnection.ChangeDatabase@@2001010O 10006c14 f   System.Data.SQLite.netmodule
 0001:00005c2c       ?System.Data.SQLite.SQLiteConnection.Close@@200001 10006c2c f   System.Data.SQLite.netmodule
 0001:00005ce8       ?System.Data.SQLite.SQLiteConnection.get_PoolCount@@200008 10006ce8 f   System.Data.SQLite.netmodule
 0001:00005d0c       ?System.Data.SQLite.SQLiteConnection.ClearPool@@0001011238 10006d0c f   System.Data.SQLite.netmodule
 0001:00005d30       ?System.Data.SQLite.SQLiteConnection.ClearAllPools@@000001 10006d30 f   System.Data.SQLite.netmodule
 0001:00005d44       ?System.Data.SQLite.SQLiteConnection.get_ConnectionString@@20000O 10006d44 f   System.Data.SQLite.netmodule
 0001:00005d60       ?System.Data.SQLite.SQLiteConnection.set_ConnectionString@@2001010O 10006d60 f   System.Data.SQLite.netmodule
 0001:00005d94       ?System.Data.SQLite.SQLiteConnection.CreateCommand@@20001230 10006d94 f   System.Data.SQLite.netmodule
 0001:00005db0       ?System.Data.SQLite.SQLiteConnection.CreateDbCommand@@20001215 10006db0 f   System.Data.SQLite.netmodule
 0001:00005dc4       ?System.Data.SQLite.SQLiteConnection.get_DataSource@@20000O 10006dc4 f   System.Data.SQLite.netmodule
 0001:00005de0       ?System.Data.SQLite.SQLiteConnection.get_Database@@20000O 10006de0 f   System.Data.SQLite.netmodule
 0001:00005df8       ?System.Data.SQLite.SQLiteConnection.MapUriPath@@00010O0O 10006df8 f   System.Data.SQLite.netmodule
 0001:00005e4c       ?System.Data.SQLite.SQLiteConnection.ParseConnectionString@@0001151280L9020O0O0O 10006e4c f   System.Data.SQLite.netmodule
 0001:00005ed8       ?System.Data.SQLite.SQLiteConnection.EnlistTransaction@@2001011280LN 10006ed8 f   System.Data.SQLite.netmodule
 0001:00005f58       ?System.Data.SQLite.SQLiteConnection.FindKey@@00030O151280L9020O0O0O0O 10006f58 f   System.Data.SQLite.netmodule
 0001:00005f74       ?System.Data.SQLite.SQLiteConnection.TryParseEnum@@00031M12750O02 10006f74 f   System.Data.SQLite.netmodule
 0001:00005fb0       ?System.Data.SQLite.SQLiteConnection.Open@@200001 10006fb0 f   System.Data.SQLite.netmodule
 0001:000067dc       ?System.Data.SQLite.SQLiteConnection.OpenAndReturn@@20001238 100077dc f   System.Data.SQLite.netmodule
 0001:000067f8       ?System.Data.SQLite.SQLiteConnection.get_DefaultTimeout@@200008 100077f8 f   System.Data.SQLite.netmodule
 0001:00006814       ?System.Data.SQLite.SQLiteConnection.set_DefaultTimeout@@20010108 10007814 f   System.Data.SQLite.netmodule
 0001:00006830       ?System.Data.SQLite.SQLiteConnection.get_Flags@@20001128 10007830 f   System.Data.SQLite.netmodule
 0001:0000684c       ?System.Data.SQLite.SQLiteConnection.set_Flags@@2001011128 1000784c f   System.Data.SQLite.netmodule
 0001:00006868       ?System.Data.SQLite.SQLiteConnection.get_ServerVersion@@20000O 10007868 f   System.Data.SQLite.netmodule
 0001:00006880       ?System.Data.SQLite.SQLiteConnection.get_LastInsertRowId@@20000K 10007880 f   System.Data.SQLite.netmodule
 0001:000068b4       ?System.Data.SQLite.SQLiteConnection.get_Changes@@200008 100078b4 f   System.Data.SQLite.netmodule
 0001:000068e8       ?System.Data.SQLite.SQLiteConnection.get_MemoryUsed@@20000K 100078e8 f   System.Data.SQLite.netmodule
 0001:0000691c       ?System.Data.SQLite.SQLiteConnection.get_MemoryHighwater@@20000K 1000791c f   System.Data.SQLite.netmodule
 0001:00006950       ?System.Data.SQLite.SQLiteConnection.SetMemoryStatus@@00010802 10007950 f   System.Data.SQLite.netmodule
 0001:00006964       ?System.Data.SQLite.SQLiteConnection.get_DefineConstants@@00000O 10007964 f   System.Data.SQLite.netmodule
 0001:00006978       ?System.Data.SQLite.SQLiteConnection.get_SQLiteVersion@@00000O 10007978 f   System.Data.SQLite.netmodule
 0001:0000698c       ?System.Data.SQLite.SQLiteConnection.get_SQLiteSourceId@@00000O 1000798c f   System.Data.SQLite.netmodule
 0001:000069a0       ?System.Data.SQLite.SQLiteConnection.get_State@@20001180KN 100079a0 f   System.Data.SQLite.netmodule
 0001:000069bc       ?System.Data.SQLite.SQLiteConnection.Shutdown@@200008 100079bc f   System.Data.SQLite.netmodule
 0001:00006ab0       ?System.Data.SQLite.SQLiteConnection.SetExtendedResultCodes@@20010102 10007ab0 f   System.Data.SQLite.netmodule
 0001:00006ad8       ?System.Data.SQLite.SQLiteConnection.ResultCode@@200008 10007ad8 f   System.Data.SQLite.netmodule
 0001:00006b0c       ?System.Data.SQLite.SQLiteConnection.ExtendedResultCode@@200008 10007b0c f   System.Data.SQLite.netmodule
 0001:00006b40       ?System.Data.SQLite.SQLiteConnection.LogMessage@@200201080O 10007b40 f   System.Data.SQLite.netmodule
 0001:00006b74       ?System.Data.SQLite.SQLiteConnection.ChangePassword@@2001010O 10007b74 f   System.Data.SQLite.netmodule
 0001:00006ba4       ?System.Data.SQLite.SQLiteConnection.ChangePassword@@2001011N05 10007ba4 f   System.Data.SQLite.netmodule
 0001:00006bd8       ?System.Data.SQLite.SQLiteConnection.SetPassword@@2001010O 10007bd8 f   System.Data.SQLite.netmodule
 0001:00006c08       ?System.Data.SQLite.SQLiteConnection.SetPassword@@2001011N05 10007c08 f   System.Data.SQLite.netmodule
 0001:00006c40       ?System.Data.SQLite.SQLiteConnection.SetAvRetry@@20020810081008 10007c40 f   System.Data.SQLite.netmodule
 0001:00006ce0       ?System.Data.SQLite.SQLiteConnection.UnwrapFileName@@20010O0O 10007ce0 f   System.Data.SQLite.netmodule
 0001:00006d3c       ?System.Data.SQLite.SQLiteConnection.ExpandFileName@@20020O0O02 10007d3c f   System.Data.SQLite.netmodule
 0001:00006e04       ?System.Data.SQLite.SQLiteConnection.GetSchema@@20001280K5 10007e04 f   System.Data.SQLite.netmodule
 0001:00006e24       ?System.Data.SQLite.SQLiteConnection.GetSchema@@20011280K50O 10007e24 f   System.Data.SQLite.netmodule
 0001:00006e44       ?System.Data.SQLite.SQLiteConnection.GetSchema@@20021280K50O1N0O 10007e44 f   System.Data.SQLite.netmodule
 0001:0000705c       ?System.Data.SQLite.SQLiteConnection.Schema_ReservedWords@@00001280K5 1000805c f   System.Data.SQLite.netmodule
 0001:00007130       ?System.Data.SQLite.SQLiteConnection.Schema_MetaDataCollections@@00001280K5 10008130 f   System.Data.SQLite.netmodule
 0001:000071d0       ?System.Data.SQLite.SQLiteConnection.Schema_DataSourceInformation@@20001280K5 100081d0 f   System.Data.SQLite.netmodule
 0001:00007494       ?System.Data.SQLite.SQLiteConnection.Schema_Columns@@20031280K50O0O0O 10008494 f   System.Data.SQLite.netmodule
 0001:00007bec       ?System.Data.SQLite.SQLiteConnection.Schema_Indexes@@20031280K50O0O0O 10008bec f   System.Data.SQLite.netmodule
 0001:0000847c       ?System.Data.SQLite.SQLiteConnection.Schema_Triggers@@20031280K50O0O0O 1000947c f   System.Data.SQLite.netmodule
 0001:00008678       ?System.Data.SQLite.SQLiteConnection.Schema_Tables@@20031280K50O0O0O 10009678 f   System.Data.SQLite.netmodule
 0001:000088f0       ?System.Data.SQLite.SQLiteConnection.Schema_Views@@20021280K50O0O 100098f0 f   System.Data.SQLite.netmodule
 0001:00008b90       ?System.Data.SQLite.SQLiteConnection.Schema_Catalogs@@20011280K50O 10009b90 f   System.Data.SQLite.netmodule
 0001:00008ce4       ?System.Data.SQLite.SQLiteConnection.Schema_DataTypes@@20001280K5 10009ce4 f   System.Data.SQLite.netmodule
 0001:00008f88       ?System.Data.SQLite.SQLiteConnection.Schema_IndexColumns@@20041280K50O0O0O0O 10009f88 f   System.Data.SQLite.netmodule
 0001:00009684       ?System.Data.SQLite.SQLiteConnection.Schema_ViewColumns@@20031280K50O0O0O 1000a684 f   System.Data.SQLite.netmodule
 0001:00009e4c       ?System.Data.SQLite.SQLiteConnection.Schema_ForeignKeys@@20031280K50O0O0O 1000ae4c f   System.Data.SQLite.netmodule
 0001:0000a410       ?System.Data.SQLite.SQLiteConnection.add_Update@@2001011254 1000b410 f   System.Data.SQLite.netmodule
 0001:0000a470       ?System.Data.SQLite.SQLiteConnection.remove_Update@@2001011254 1000b470 f   System.Data.SQLite.netmodule
 0001:0000a4c0       ?System.Data.SQLite.SQLiteConnection.UpdateCallback@@200501180818180K 1000b4c0 f   System.Data.SQLite.netmodule
 0001:0000a4f0       ?System.Data.SQLite.SQLiteConnection.add_Commit@@2001011250 1000b4f0 f   System.Data.SQLite.netmodule
 0001:0000a550       ?System.Data.SQLite.SQLiteConnection.remove_Commit@@2001011250 1000b550 f   System.Data.SQLite.netmodule
 0001:0000a5a0       ?System.Data.SQLite.SQLiteConnection.add_Trace@@2001011258 1000b5a0 f   System.Data.SQLite.netmodule
 0001:0000a600       ?System.Data.SQLite.SQLiteConnection.remove_Trace@@2001011258 1000b600 f   System.Data.SQLite.netmodule
 0001:0000a650       ?System.Data.SQLite.SQLiteConnection.TraceCallback@@2002011818 1000b650 f   System.Data.SQLite.netmodule
 0001:0000a678       ?System.Data.SQLite.SQLiteConnection.add_RollBack@@2001011280L1 1000b678 f   System.Data.SQLite.netmodule
 0001:0000a6d8       ?System.Data.SQLite.SQLiteConnection.remove_RollBack@@2001011280L1 1000b6d8 f   System.Data.SQLite.netmodule
 0001:0000a728       ?System.Data.SQLite.SQLiteConnection.CommitCallback@@20010818 1000b728 f   System.Data.SQLite.netmodule
 0001:0000a754       ?System.Data.SQLite.SQLiteConnection.RollbackCallback@@20010118 1000b754 f   System.Data.SQLite.netmodule
 0001:0000a774       ?System.Data.SQLite.SQLiteConnection.get_DbProviderFactory@@20001241 1000b774 f   System.Data.SQLite.netmodule
 0001:0000a788       ?System.Data.SQLite.UpdateEventArgs..ctor@@2004010O0O11600K 1000b788 f   System.Data.SQLite.netmodule
 0001:0000a7b8       ?System.Data.SQLite.CommitEventArgs..ctor@@200001 1000b7b8 f   System.Data.SQLite.netmodule
 0001:0000a7cc       ?System.Data.SQLite.TraceEventArgs..ctor@@2001010O 1000b7cc f   System.Data.SQLite.netmodule
 0001:0000a7e8       ?System.Data.SQLite.SQLiteConnectionPool.GetCounts@@0005010O1015127N020O08100810081008 1000b7e8 f   System.Data.SQLite.netmodule
 0001:0000a900       ?System.Data.SQLite.SQLiteConnectionPool.Remove@@00031281140O081008 1000b900 f   System.Data.SQLite.netmodule
 0001:0000aad8       ?System.Data.SQLite.SQLiteConnectionPool.ClearAllPools@@000001 1000bad8 f   System.Data.SQLite.netmodule
 0001:0000abd4       ?System.Data.SQLite.SQLiteConnectionPool.ClearPool@@0001010O 1000bbd4 f   System.Data.SQLite.netmodule
 0001:0000ac6c       ?System.Data.SQLite.SQLiteConnectionPool.Add@@0003010O12811408 1000bc6c f   System.Data.SQLite.netmodule
 0001:0000acfc       ?System.Data.SQLite.SQLiteConnectionPool.ResizePool@@000201127402 1000bcfc f   System.Data.SQLite.netmodule
 0001:0000ad54       ?System.Data.SQLite.SQLiteConnectionPool..cctor@@000001 1000bd54 f   System.Data.SQLite.netmodule
 0001:0000ad84       ?System.Data.SQLite.SQLiteConnectionPool.Pool..ctor@@2002010808 1000bd84 f   System.Data.SQLite.netmodule
 0001:0000adb0       ?System.Data.SQLite.SQLiteConnectionStringBuilder..ctor@@200001 1000bdb0 f   System.Data.SQLite.netmodule
 0001:0000adcc       ?System.Data.SQLite.SQLiteConnectionStringBuilder..ctor@@2001010O 1000bdcc f   System.Data.SQLite.netmodule
 0001:0000ade8       ?System.Data.SQLite.SQLiteConnectionStringBuilder.Initialize@@2001010O 1000bde8 f   System.Data.SQLite.netmodule
 0001:0000ae50       ?System.Data.SQLite.SQLiteConnectionStringBuilder.get_Version@@200008 1000be50 f   System.Data.SQLite.netmodule
 0001:0000ae78       ?System.Data.SQLite.SQLiteConnectionStringBuilder.set_Version@@20010108 1000be78 f   System.Data.SQLite.netmodule
 0001:0000aea0       ?System.Data.SQLite.SQLiteConnectionStringBuilder.get_SyncMode@@2000113M 1000bea0 f   System.Data.SQLite.netmodule
 0001:0000aee4       ?System.Data.SQLite.SQLiteConnectionStringBuilder.set_SyncMode@@200101113M 1000bee4 f   System.Data.SQLite.netmodule
 0001:0000af04       ?System.Data.SQLite.SQLiteConnectionStringBuilder.get_UseUTF16Encoding@@200002 1000bf04 f   System.Data.SQLite.netmodule
 0001:0000af28       ?System.Data.SQLite.SQLiteConnectionStringBuilder.set_UseUTF16Encoding@@20010102 1000bf28 f   System.Data.SQLite.netmodule
 0001:0000af48       ?System.Data.SQLite.SQLiteConnectionStringBuilder.get_Pooling@@200002 1000bf48 f   System.Data.SQLite.netmodule
 0001:0000af6c       ?System.Data.SQLite.SQLiteConnectionStringBuilder.set_Pooling@@20010102 1000bf6c f   System.Data.SQLite.netmodule
 0001:0000af8c       ?System.Data.SQLite.SQLiteConnectionStringBuilder.get_BinaryGUID@@200002 1000bf8c f   System.Data.SQLite.netmodule
 0001:0000afb0       ?System.Data.SQLite.SQLiteConnectionStringBuilder.set_BinaryGUID@@20010102 1000bfb0 f   System.Data.SQLite.netmodule
 0001:0000afd0       ?System.Data.SQLite.SQLiteConnectionStringBuilder.get_DataSource@@20000O 1000bfd0 f   System.Data.SQLite.netmodule
 0001:0000aff4       ?System.Data.SQLite.SQLiteConnectionStringBuilder.set_DataSource@@2001010O 1000bff4 f   System.Data.SQLite.netmodule
 0001:0000b010       ?System.Data.SQLite.SQLiteConnectionStringBuilder.get_Uri@@20000O 1000c010 f   System.Data.SQLite.netmodule
 0001:0000b034       ?System.Data.SQLite.SQLiteConnectionStringBuilder.set_Uri@@2001010O 1000c034 f   System.Data.SQLite.netmodule
 0001:0000b050       ?System.Data.SQLite.SQLiteConnectionStringBuilder.get_FullUri@@20000O 1000c050 f   System.Data.SQLite.netmodule
 0001:0000b074       ?System.Data.SQLite.SQLiteConnectionStringBuilder.set_FullUri@@2001010O 1000c074 f   System.Data.SQLite.netmodule
 0001:0000b090       ?System.Data.SQLite.SQLiteConnectionStringBuilder.get_DefaultTimeout@@200008 1000c090 f   System.Data.SQLite.netmodule
 0001:0000b0b8       ?System.Data.SQLite.SQLiteConnectionStringBuilder.set_DefaultTimeout@@20010108 1000c0b8 f   System.Data.SQLite.netmodule
 0001:0000b0d8       ?System.Data.SQLite.SQLiteConnectionStringBuilder.get_Enlist@@200002 1000c0d8 f   System.Data.SQLite.netmodule
 0001:0000b0fc       ?System.Data.SQLite.SQLiteConnectionStringBuilder.set_Enlist@@20010102 1000c0fc f   System.Data.SQLite.netmodule
 0001:0000b11c       ?System.Data.SQLite.SQLiteConnectionStringBuilder.get_FailIfMissing@@200002 1000c11c f   System.Data.SQLite.netmodule
 0001:0000b140       ?System.Data.SQLite.SQLiteConnectionStringBuilder.set_FailIfMissing@@20010102 1000c140 f   System.Data.SQLite.netmodule
 0001:0000b160       ?System.Data.SQLite.SQLiteConnectionStringBuilder.get_LegacyFormat@@200002 1000c160 f   System.Data.SQLite.netmodule
 0001:0000b184       ?System.Data.SQLite.SQLiteConnectionStringBuilder.set_LegacyFormat@@20010102 1000c184 f   System.Data.SQLite.netmodule
 0001:0000b1a4       ?System.Data.SQLite.SQLiteConnectionStringBuilder.get_ReadOnly@@200002 1000c1a4 f   System.Data.SQLite.netmodule
 0001:0000b1c8       ?System.Data.SQLite.SQLiteConnectionStringBuilder.set_ReadOnly@@20010102 1000c1c8 f   System.Data.SQLite.netmodule
 0001:0000b1e8       ?System.Data.SQLite.SQLiteConnectionStringBuilder.get_Password@@20000O 1000c1e8 f   System.Data.SQLite.netmodule
 0001:0000b20c       ?System.Data.SQLite.SQLiteConnectionStringBuilder.set_Password@@2001010O 1000c20c f   System.Data.SQLite.netmodule
 0001:0000b228       ?System.Data.SQLite.SQLiteConnectionStringBuilder.get_PageSize@@200008 1000c228 f   System.Data.SQLite.netmodule
 0001:0000b250       ?System.Data.SQLite.SQLiteConnectionStringBuilder.set_PageSize@@20010108 1000c250 f   System.Data.SQLite.netmodule
 0001:0000b270       ?System.Data.SQLite.SQLiteConnectionStringBuilder.get_MaxPageCount@@200008 1000c270 f   System.Data.SQLite.netmodule
 0001:0000b298       ?System.Data.SQLite.SQLiteConnectionStringBuilder.set_MaxPageCount@@20010108 1000c298 f   System.Data.SQLite.netmodule
 0001:0000b2b8       ?System.Data.SQLite.SQLiteConnectionStringBuilder.get_CacheSize@@200008 1000c2b8 f   System.Data.SQLite.netmodule
 0001:0000b2e0       ?System.Data.SQLite.SQLiteConnectionStringBuilder.set_CacheSize@@20010108 1000c2e0 f   System.Data.SQLite.netmodule
 0001:0000b300       ?System.Data.SQLite.SQLiteConnectionStringBuilder.get_DateTimeFormat@@2000118080 1000c300 f   System.Data.SQLite.netmodule
 0001:0000b34c       ?System.Data.SQLite.SQLiteConnectionStringBuilder.set_DateTimeFormat@@200101118080 1000c34c f   System.Data.SQLite.netmodule
 0001:0000b36c       ?System.Data.SQLite.SQLiteConnectionStringBuilder.get_DateTimeKind@@20001171 1000c36c f   System.Data.SQLite.netmodule
 0001:0000b3b8       ?System.Data.SQLite.SQLiteConnectionStringBuilder.set_DateTimeKind@@2001011171 1000c3b8 f   System.Data.SQLite.netmodule
 0001:0000b3d8       ?System.Data.SQLite.SQLiteConnectionStringBuilder.get_BaseSchemaName@@20000O 1000c3d8 f   System.Data.SQLite.netmodule
 0001:0000b410       ?System.Data.SQLite.SQLiteConnectionStringBuilder.set_BaseSchemaName@@2001010O 1000c410 f   System.Data.SQLite.netmodule
 0001:0000b42c       ?System.Data.SQLite.SQLiteConnectionStringBuilder.get_JournalMode@@2000118084 1000c42c f   System.Data.SQLite.netmodule
 0001:0000b470       ?System.Data.SQLite.SQLiteConnectionStringBuilder.set_JournalMode@@200101118084 1000c470 f   System.Data.SQLite.netmodule
 0001:0000b490       ?System.Data.SQLite.SQLiteConnectionStringBuilder.get_DefaultIsolationLevel@@20001180K9 1000c490 f   System.Data.SQLite.netmodule
 0001:0000b4d4       ?System.Data.SQLite.SQLiteConnectionStringBuilder.set_DefaultIsolationLevel@@2001011180K9 1000c4d4 f   System.Data.SQLite.netmodule
 0001:0000b4f4       ?System.Data.SQLite.SQLiteConnectionStringBuilder.get_ForeignKeys@@200002 1000c4f4 f   System.Data.SQLite.netmodule
 0001:0000b518       ?System.Data.SQLite.SQLiteConnectionStringBuilder.set_ForeignKeys@@20010102 1000c518 f   System.Data.SQLite.netmodule
 0001:0000b538       ?System.Data.SQLite.SQLiteConnectionStringBuilder.get_Flags@@20001128 1000c538 f   System.Data.SQLite.netmodule
 0001:0000b584       ?System.Data.SQLite.SQLiteConnectionStringBuilder.set_Flags@@2001011128 1000c584 f   System.Data.SQLite.netmodule
 0001:0000b5a4       ?System.Data.SQLite.SQLiteConnectionStringBuilder.get_SetDefaults@@200002 1000c5a4 f   System.Data.SQLite.netmodule
 0001:0000b5c8       ?System.Data.SQLite.SQLiteConnectionStringBuilder.set_SetDefaults@@20010102 1000c5c8 f   System.Data.SQLite.netmodule
 0001:0000b5e8       ?System.Data.SQLite.SQLiteConnectionStringBuilder.get_ToFullPath@@200002 1000c5e8 f   System.Data.SQLite.netmodule
 0001:0000b60c       ?System.Data.SQLite.SQLiteConnectionStringBuilder.set_ToFullPath@@20010102 1000c60c f   System.Data.SQLite.netmodule
 0001:0000b62c       ?System.Data.SQLite.SQLiteConnectionStringBuilder.TryGetValue@@2002020O101M 1000c62c f   System.Data.SQLite.netmodule
 0001:0000b6d0       ?System.Data.SQLite.SQLiteConnectionStringBuilder.FallbackGetProperties@@2001011280M5 1000c6d0 f   System.Data.SQLite.netmodule
 0001:0000b75c       ?System.Data.SQLite.SQLiteType..ctor@@200001 1000c75c f   System.Data.SQLite.netmodule
 0001:0000b770       ?System.Data.SQLite.SQLiteTypeNames..ctor@@2002010O1179 1000c770 f   System.Data.SQLite.netmodule
 0001:0000b78c       ?System.Data.SQLite.TypeNameStringComparer.Equals@@2002020O0O 1000c78c f   System.Data.SQLite.netmodule
 0001:0000b7a4       ?System.Data.SQLite.TypeNameStringComparer.GetHashCode@@2001080O 1000c7a4 f   System.Data.SQLite.netmodule
 0001:0000b7cc       ?System.Data.SQLite.TypeNameStringComparer..ctor@@200001 1000c7cc f   System.Data.SQLite.netmodule
 0001:0000b7e0       ?System.Data.SQLite.SQLiteDataAdapter..ctor@@200001 1000c7e0 f   System.Data.SQLite.netmodule
 0001:0000b7f4       ?System.Data.SQLite.SQLiteDataAdapter..ctor@@2001011230 1000c7f4 f   System.Data.SQLite.netmodule
 0001:0000b810       ?System.Data.SQLite.SQLiteDataAdapter..ctor@@2002010O1238 1000c810 f   System.Data.SQLite.netmodule
 0001:0000b830       ?System.Data.SQLite.SQLiteDataAdapter..ctor@@2002010O0O 1000c830 f   System.Data.SQLite.netmodule
 0001:0000b858       ?System.Data.SQLite.SQLiteDataAdapter.CheckDisposed@@200001 1000c858 f   System.Data.SQLite.netmodule
 0001:0000b884       ?System.Data.SQLite.SQLiteDataAdapter.Dispose@@20010102 1000c884 f   System.Data.SQLite.netmodule
 0001:0000b8c8       ?System.Data.SQLite.SQLiteDataAdapter.add_RowUpdating@@200101151280M90112809N 1000c8c8 f   System.Data.SQLite.netmodule
 0001:0000b934       ?System.Data.SQLite.SQLiteDataAdapter.remove_RowUpdating@@200101151280M90112809N 1000c934 f   System.Data.SQLite.netmodule
 0001:0000b958       ?System.Data.SQLite.SQLiteDataAdapter.FindBuilder@@00011280MN1205 1000c958 f   System.Data.SQLite.netmodule
 0001:0000b994       ?System.Data.SQLite.SQLiteDataAdapter.add_RowUpdated@@200101151280M9011280N1 1000c994 f   System.Data.SQLite.netmodule
 0001:0000b9b8       ?System.Data.SQLite.SQLiteDataAdapter.remove_RowUpdated@@200101151280M9011280N1 1000c9b8 f   System.Data.SQLite.netmodule
 0001:0000b9dc       ?System.Data.SQLite.SQLiteDataAdapter.OnRowUpdating@@20010112809N 1000c9dc f   System.Data.SQLite.netmodule
 0001:0000ba0c       ?System.Data.SQLite.SQLiteDataAdapter.OnRowUpdated@@2001011280N1 1000ca0c f   System.Data.SQLite.netmodule
 0001:0000ba3c       ?System.Data.SQLite.SQLiteDataAdapter.get_SelectCommand@@20001230 1000ca3c f   System.Data.SQLite.netmodule
 0001:0000ba5c       ?System.Data.SQLite.SQLiteDataAdapter.set_SelectCommand@@2001011230 1000ca5c f   System.Data.SQLite.netmodule
 0001:0000ba78       ?System.Data.SQLite.SQLiteDataAdapter.get_InsertCommand@@20001230 1000ca78 f   System.Data.SQLite.netmodule
 0001:0000ba98       ?System.Data.SQLite.SQLiteDataAdapter.set_InsertCommand@@2001011230 1000ca98 f   System.Data.SQLite.netmodule
 0001:0000bab4       ?System.Data.SQLite.SQLiteDataAdapter.get_UpdateCommand@@20001230 1000cab4 f   System.Data.SQLite.netmodule
 0001:0000bad4       ?System.Data.SQLite.SQLiteDataAdapter.set_UpdateCommand@@2001011230 1000cad4 f   System.Data.SQLite.netmodule
 0001:0000baf0       ?System.Data.SQLite.SQLiteDataAdapter.get_DeleteCommand@@20001230 1000caf0 f   System.Data.SQLite.netmodule
 0001:0000bb10       ?System.Data.SQLite.SQLiteDataAdapter.set_DeleteCommand@@2001011230 1000cb10 f   System.Data.SQLite.netmodule
 0001:0000bb2c       ?System.Data.SQLite.SQLiteDataAdapter..cctor@@000001 1000cb2c f   System.Data.SQLite.netmodule
 0001:0000bb50       ?System.Data.SQLite.SQLiteDataReader..ctor@@2002011230118091 1000cb50 f   System.Data.SQLite.netmodule
 0001:0000bbc4       ?System.Data.SQLite.SQLiteDataReader.CheckDisposed@@200001 1000cbc4 f   System.Data.SQLite.netmodule
 0001:0000bbf8       ?System.Data.SQLite.SQLiteDataReader.Dispose@@20010102 1000cbf8 f   System.Data.SQLite.netmodule
 0001:0000bc44       ?System.Data.SQLite.SQLiteDataReader.Cancel@@200001 1000cc44 f   System.Data.SQLite.netmodule
 0001:0000bc5c       ?System.Data.SQLite.SQLiteDataReader.Close@@200001 1000cc5c f   System.Data.SQLite.netmodule
 0001:0000bd70       ?System.Data.SQLite.SQLiteDataReader.CheckClosed@@200001 1000cd70 f   System.Data.SQLite.netmodule
 0001:0000bde8       ?System.Data.SQLite.SQLiteDataReader.CheckValidRow@@200001 1000cde8 f   System.Data.SQLite.netmodule
 0001:0000be08       ?System.Data.SQLite.SQLiteDataReader.GetEnumerator@@20001280N5 1000ce08 f   System.Data.SQLite.netmodule
 0001:0000be30       ?System.Data.SQLite.SQLiteDataReader.get_Depth@@200008 1000ce30 f   System.Data.SQLite.netmodule
 0001:0000be4c       ?System.Data.SQLite.SQLiteDataReader.get_FieldCount@@200008 1000ce4c f   System.Data.SQLite.netmodule
 0001:0000be88       ?System.Data.SQLite.SQLiteDataReader.get_VisibleFieldCount@@200008 1000ce88 f   System.Data.SQLite.netmodule
 0001:0000bea8       ?System.Data.SQLite.SQLiteDataReader.VerifyType@@2002117M081179 1000cea8 f   System.Data.SQLite.netmodule
 0001:0000bf84       ?System.Data.SQLite.SQLiteDataReader.GetBoolean@@20010208 1000cf84 f   System.Data.SQLite.netmodule
 0001:0000bfd8       ?System.Data.SQLite.SQLiteDataReader.GetByte@@20010508 1000cfd8 f   System.Data.SQLite.netmodule
 0001:0000c038       ?System.Data.SQLite.SQLiteDataReader.GetBytes@@20050K080K1N050808 1000d038 f   System.Data.SQLite.netmodule
 0001:0000c0a0       ?System.Data.SQLite.SQLiteDataReader.GetChar@@20010308 1000d0a0 f   System.Data.SQLite.netmodule
 0001:0000c100       ?System.Data.SQLite.SQLiteDataReader.GetChars@@20050K080K1N030808 1000d100 f   System.Data.SQLite.netmodule
 0001:0000c168       ?System.Data.SQLite.SQLiteDataReader.GetDataTypeName@@20010O08 1000d168 f   System.Data.SQLite.netmodule
 0001:0000c1dc       ?System.Data.SQLite.SQLiteDataReader.GetDateTime@@2001116908 1000d1dc f   System.Data.SQLite.netmodule
 0001:0000c234       ?System.Data.SQLite.SQLiteDataReader.GetDecimal@@20011180N908 1000d234 f   System.Data.SQLite.netmodule
 0001:0000c29c       ?System.Data.SQLite.SQLiteDataReader.GetDouble@@20010N08 1000d29c f   System.Data.SQLite.netmodule
 0001:0000c2f4       ?System.Data.SQLite.SQLiteDataReader.GetFieldType@@2001127508 1000d2f4 f   System.Data.SQLite.netmodule
 0001:0000c338       ?System.Data.SQLite.SQLiteDataReader.GetFloat@@20010M08 1000d338 f   System.Data.SQLite.netmodule
 0001:0000c398       ?System.Data.SQLite.SQLiteDataReader.GetGuid@@20011180NN08 1000d398 f   System.Data.SQLite.netmodule
 0001:0000c428       ?System.Data.SQLite.SQLiteDataReader.GetInt16@@20010608 1000d428 f   System.Data.SQLite.netmodule
 0001:0000c488       ?System.Data.SQLite.SQLiteDataReader.GetInt32@@20010808 1000d488 f   System.Data.SQLite.netmodule
 0001:0000c4e4       ?System.Data.SQLite.SQLiteDataReader.GetInt64@@20010K08 1000d4e4 f   System.Data.SQLite.netmodule
 0001:0000c540       ?System.Data.SQLite.SQLiteDataReader.GetName@@20010O08 1000d540 f   System.Data.SQLite.netmodule
 0001:0000c590       ?System.Data.SQLite.SQLiteDataReader.GetOrdinal@@2001080O 1000d590 f   System.Data.SQLite.netmodule
 0001:0000c5e8       ?System.Data.SQLite.SQLiteDataReader.GetSchemaTable@@20001280K5 1000d5e8 f   System.Data.SQLite.netmodule
 0001:0000c604       ?System.Data.SQLite.SQLiteDataReader.GetStatementColumnParents@@0005011210128104081015127N021280K01512808901081015127N02081280K0 1000d604 f   System.Data.SQLite.netmodule
 0001:0000c6b0       ?System.Data.SQLite.SQLiteDataReader.GetSchemaTable@@20021280K50202 1000d6b0 f   System.Data.SQLite.netmodule
 0001:0000d10c       ?System.Data.SQLite.SQLiteDataReader.GetString@@20010O08 1000e10c f   System.Data.SQLite.netmodule
 0001:0000d168       ?System.Data.SQLite.SQLiteDataReader.GetValue@@20011M08 1000e168 f   System.Data.SQLite.netmodule
 0001:0000d1c0       ?System.Data.SQLite.SQLiteDataReader.GetValues@@2001081N1M 1000e1c0 f   System.Data.SQLite.netmodule
 0001:0000d1fc       ?System.Data.SQLite.SQLiteDataReader.GetValues@@20001280O1 1000e1fc f   System.Data.SQLite.netmodule
 0001:0000d280       ?System.Data.SQLite.SQLiteDataReader.get_HasRows@@200002 1000e280 f   System.Data.SQLite.netmodule
 0001:0000d2a8       ?System.Data.SQLite.SQLiteDataReader.get_IsClosed@@200002 1000e2a8 f   System.Data.SQLite.netmodule
 0001:0000d2c4       ?System.Data.SQLite.SQLiteDataReader.IsDBNull@@20010208 1000e2c4 f   System.Data.SQLite.netmodule
 0001:0000d314       ?System.Data.SQLite.SQLiteDataReader.NextResult@@200002 1000e314 f   System.Data.SQLite.netmodule
 0001:0000d4d4       ?System.Data.SQLite.SQLiteDataReader.GetSQLiteType@@200112808M08 1000e4d4 f   System.Data.SQLite.netmodule
 0001:0000d56c       ?System.Data.SQLite.SQLiteDataReader.Read@@200002 1000e56c f   System.Data.SQLite.netmodule
 0001:0000d5e0       ?System.Data.SQLite.SQLiteDataReader.get_RecordsAffected@@200008 1000e5e0 f   System.Data.SQLite.netmodule
 0001:0000d604       ?System.Data.SQLite.SQLiteDataReader.get_Item@@20011M0O 1000e604 f   System.Data.SQLite.netmodule
 0001:0000d624       ?System.Data.SQLite.SQLiteDataReader.get_Item@@20011M08 1000e624 f   System.Data.SQLite.netmodule
 0001:0000d640       ?System.Data.SQLite.SQLiteDataReader.LoadKeyInfo@@200001 1000e640 f   System.Data.SQLite.netmodule
 0001:0000d684       ?System.Data.SQLite.SQLiteDataReader.ColumnParent..ctor@@200001 1000e684 f   System.Data.SQLite.netmodule
 0001:0000d698       ?System.Data.SQLite.SQLiteDataReader.ColumnParent..ctor@@2003010O0O0O 1000e698 f   System.Data.SQLite.netmodule
 0001:0000d6c0       ?System.Data.SQLite.SQLiteDataReader.ColumnParent.Equals@@2002021280K01280K0 1000e6c0 f   System.Data.SQLite.netmodule
 0001:0000d720       ?System.Data.SQLite.SQLiteDataReader.ColumnParent.GetHashCode@@2001081280K0 1000e720 f   System.Data.SQLite.netmodule
 0001:0000d77c       ?System.Data.SQLite.SQLiteDefineConstants..cctor@@000001 1000e77c f   System.Data.SQLite.netmodule
 0001:0000d7dc       ?System.Data.SQLite.SQLiteException..ctor@@2002011280O91180ON 1000e7dc f   System.Data.SQLite.netmodule
 0001:0000d7f4       ?System.Data.SQLite.SQLiteException..ctor@@200201080O 1000e7f4 f   System.Data.SQLite.netmodule
 0001:0000d818       ?System.Data.SQLite.SQLiteException..ctor@@2001010O 1000e818 f   System.Data.SQLite.netmodule
 0001:0000d82c       ?System.Data.SQLite.SQLiteException..ctor@@200001 1000e82c f   System.Data.SQLite.netmodule
 0001:0000d840       ?System.Data.SQLite.SQLiteException..ctor@@2002010O1280P1 1000e840 f   System.Data.SQLite.netmodule
 0001:0000d858       ?System.Data.SQLite.SQLiteException.get_ErrorCode@@20001180KM 1000e858 f   System.Data.SQLite.netmodule
 0001:0000d86c       ?System.Data.SQLite.SQLiteException.GetStockErrorMessage@@00020O080O 1000e86c f   System.Data.SQLite.netmodule
 0001:0000d8b8       ?System.Data.SQLite.SQLiteException..cctor@@000001 1000e8b8 f   System.Data.SQLite.netmodule
 0001:0000d9c0       ?System.Data.SQLite.SQLiteFactory..ctor@@200001 1000e9c0 f   System.Data.SQLite.netmodule
 0001:0000d9d4       ?System.Data.SQLite.SQLiteFactory.Dispose@@200001 1000e9d4 f   System.Data.SQLite.netmodule
 0001:0000d9f0       ?System.Data.SQLite.SQLiteFactory.CheckDisposed@@200001 1000e9f0 f   System.Data.SQLite.netmodule
 0001:0000da1c       ?System.Data.SQLite.SQLiteFactory.Dispose@@20010102 1000ea1c f   System.Data.SQLite.netmodule
 0001:0000da38       ?System.Data.SQLite.SQLiteFactory.Finalize@@200001 1000ea38 f   System.Data.SQLite.netmodule
 0001:0000da74       ?System.Data.SQLite.SQLiteFactory.add_Log@@2001011280P0 1000ea74 f   System.Data.SQLite.netmodule
 0001:0000da90       ?System.Data.SQLite.SQLiteFactory.remove_Log@@2001011280P0 1000ea90 f   System.Data.SQLite.netmodule
 0001:0000daac       ?System.Data.SQLite.SQLiteFactory.CreateCommand@@20001215 1000eaac f   System.Data.SQLite.netmodule
 0001:0000dac4       ?System.Data.SQLite.SQLiteFactory.CreateCommandBuilder@@2000121N 1000eac4 f   System.Data.SQLite.netmodule
 0001:0000dadc       ?System.Data.SQLite.SQLiteFactory.CreateConnection@@20001221 1000eadc f   System.Data.SQLite.netmodule
 0001:0000daf4       ?System.Data.SQLite.SQLiteFactory.CreateConnectionStringBuilder@@20001229 1000eaf4 f   System.Data.SQLite.netmodule
 0001:0000db0c       ?System.Data.SQLite.SQLiteFactory.CreateDataAdapter@@20001235 1000eb0c f   System.Data.SQLite.netmodule
 0001:0000db24       ?System.Data.SQLite.SQLiteFactory.CreateParameter@@2000124N 1000eb24 f   System.Data.SQLite.netmodule
 0001:0000db3c       ?System.Data.SQLite.SQLiteFactory..cctor@@000001 1000eb3c f   System.Data.SQLite.netmodule
 0001:0000db84       ?System.Data.SQLite.SQLiteFactory.System.IServiceProvider.GetService@@20011M1275 1000eb84 f   System.Data.SQLite.netmodule
 0001:0000dbb8       ?System.Data.SQLite.SQLiteFactory.GetSQLiteProviderServicesInstance@@20001M 1000ebb8 f   System.Data.SQLite.netmodule
 0001:0000dc28       ?System.Data.SQLite.SQLiteFunction..ctor@@200001 1000ec28 f   System.Data.SQLite.netmodule
 0001:0000dc48       ?System.Data.SQLite.SQLiteFunction.Dispose@@200001 1000ec48 f   System.Data.SQLite.netmodule
 0001:0000dc64       ?System.Data.SQLite.SQLiteFunction.CheckDisposed@@200001 1000ec64 f   System.Data.SQLite.netmodule
 0001:0000dc90       ?System.Data.SQLite.SQLiteFunction.Dispose@@20010102 1000ec90 f   System.Data.SQLite.netmodule
 0001:0000dd58       ?System.Data.SQLite.SQLiteFunction.Finalize@@200001 1000ed58 f   System.Data.SQLite.netmodule
 0001:0000dd94       ?System.Data.SQLite.SQLiteFunction.get_SQLiteConvert@@2000120M 1000ed94 f   System.Data.SQLite.netmodule
 0001:0000ddb0       ?System.Data.SQLite.SQLiteFunction.Invoke@@20011M1N1M 1000edb0 f   System.Data.SQLite.netmodule
 0001:0000ddc4       ?System.Data.SQLite.SQLiteFunction.Step@@2003011N1M08101M 1000edc4 f   System.Data.SQLite.netmodule
 0001:0000ddd8       ?System.Data.SQLite.SQLiteFunction.Final@@20011M1M 1000edd8 f   System.Data.SQLite.netmodule
 0001:0000ddec       ?System.Data.SQLite.SQLiteFunction.Compare@@2002080O0O 1000edec f   System.Data.SQLite.netmodule
 0001:0000de00       ?System.Data.SQLite.SQLiteFunction.ConvertParams@@20021N1M0818 1000ee00 f   System.Data.SQLite.netmodule
 0001:0000df6c       ?System.Data.SQLite.SQLiteFunction.SetReturnValue@@200201181M 1000ef6c f   System.Data.SQLite.netmodule
 0001:0000e068       ?System.Data.SQLite.SQLiteFunction.ScalarCallback@@200301180818 1000f068 f   System.Data.SQLite.netmodule
 0001:0000e100       ?System.Data.SQLite.SQLiteFunction.CompareCallback@@2005081808180818 1000f100 f   System.Data.SQLite.netmodule
 0001:0000e1a8       ?System.Data.SQLite.SQLiteFunction.CompareCallback16@@2005081808180818 1000f1a8 f   System.Data.SQLite.netmodule
 0001:0000e250       ?System.Data.SQLite.SQLiteFunction.StepCallback@@200301180818 1000f250 f   System.Data.SQLite.netmodule
 0001:0000e364       ?System.Data.SQLite.SQLiteFunction.FinalCallback@@20010118 1000f364 f   System.Data.SQLite.netmodule
 0001:0000e468       ?System.Data.SQLite.SQLiteFunction..cctor@@000001 1000f468 f   System.Data.SQLite.netmodule
 0001:0000e5b0       ?System.Data.SQLite.SQLiteFunction.RegisterFunction@@0001011275 1000f5b0 f   System.Data.SQLite.netmodule
 0001:0000e600       ?System.Data.SQLite.SQLiteFunction.BindFunctions@@00021N1280L412101128 1000f600 f   System.Data.SQLite.netmodule
 0001:0000e784       ?System.Data.SQLite.SQLiteFunction.AggregateData..ctor@@200001 1000f784 f   System.Data.SQLite.netmodule
 0001:0000e7a0       ?System.Data.SQLite.SQLiteFunctionEx.GetCollationSequence@@20001180N8 1000f7a0 f   System.Data.SQLite.netmodule
 0001:0000e7c0       ?System.Data.SQLite.SQLiteFunctionEx.CheckDisposed@@200001 1000f7c0 f   System.Data.SQLite.netmodule
 0001:0000e7ec       ?System.Data.SQLite.SQLiteFunctionEx.Dispose@@20010102 1000f7ec f   System.Data.SQLite.netmodule
 0001:0000e830       ?System.Data.SQLite.SQLiteFunctionEx..ctor@@200001 1000f830 f   System.Data.SQLite.netmodule
 0001:0000e844       ?System.Data.SQLite.CollationSequence.Compare@@2002080O0O 1000f844 f   System.Data.SQLite.netmodule
 0001:0000e874       ?System.Data.SQLite.CollationSequence.Compare@@2002081N031N03 1000f874 f   System.Data.SQLite.netmodule
 0001:0000e8a4       ?System.Data.SQLite.SQLiteFunctionAttribute..ctor@@200001 1000f8a4 f   System.Data.SQLite.netmodule
 0001:0000e8d0       ?System.Data.SQLite.SQLiteFunctionAttribute.get_Name@@20000O 1000f8d0 f   System.Data.SQLite.netmodule
 0001:0000e8e4       ?System.Data.SQLite.SQLiteFunctionAttribute.set_Name@@2001010O 1000f8e4 f   System.Data.SQLite.netmodule
 0001:0000e8f8       ?System.Data.SQLite.SQLiteFunctionAttribute.get_Arguments@@200008 1000f8f8 f   System.Data.SQLite.netmodule
 0001:0000e90c       ?System.Data.SQLite.SQLiteFunctionAttribute.set_Arguments@@20010108 1000f90c f   System.Data.SQLite.netmodule
 0001:0000e920       ?System.Data.SQLite.SQLiteFunctionAttribute.get_FuncType@@20001180M0 1000f920 f   System.Data.SQLite.netmodule
 0001:0000e934       ?System.Data.SQLite.SQLiteFunctionAttribute.set_FuncType@@2001011180M0 1000f934 f   System.Data.SQLite.netmodule
 0001:0000e948       ?System.Data.SQLite.SQLiteKeyReader..ctor@@200301123812809M128104 1000f948 f   System.Data.SQLite.netmodule
 0001:0000f000       ?System.Data.SQLite.SQLiteKeyReader.Dispose@@200001 10010000 f   System.Data.SQLite.netmodule
 0001:0000f01c       ?System.Data.SQLite.SQLiteKeyReader.CheckDisposed@@200001 1001001c f   System.Data.SQLite.netmodule
 0001:0000f048       ?System.Data.SQLite.SQLiteKeyReader.Dispose@@20010102 10010048 f   System.Data.SQLite.netmodule
 0001:0000f0bc       ?System.Data.SQLite.SQLiteKeyReader.Finalize@@200001 100100bc f   System.Data.SQLite.netmodule
 0001:0000f0f8       ?System.Data.SQLite.SQLiteKeyReader.get_Count@@200008 100100f8 f   System.Data.SQLite.netmodule
 0001:0000f118       ?System.Data.SQLite.SQLiteKeyReader.Sync@@20010108 10010118 f   System.Data.SQLite.netmodule
 0001:0000f148       ?System.Data.SQLite.SQLiteKeyReader.Sync@@200001 10010148 f   System.Data.SQLite.netmodule
 0001:0000f1e4       ?System.Data.SQLite.SQLiteKeyReader.Reset@@200001 100101e4 f   System.Data.SQLite.netmodule
 0001:0000f240       ?System.Data.SQLite.SQLiteKeyReader.GetDataTypeName@@20010O08 10010240 f   System.Data.SQLite.netmodule
 0001:0000f298       ?System.Data.SQLite.SQLiteKeyReader.GetFieldType@@2001127508 10010298 f   System.Data.SQLite.netmodule
 0001:0000f2f8       ?System.Data.SQLite.SQLiteKeyReader.GetName@@20010O08 100102f8 f   System.Data.SQLite.netmodule
 0001:0000f318       ?System.Data.SQLite.SQLiteKeyReader.GetOrdinal@@2001080O 10010318 f   System.Data.SQLite.netmodule
 0001:0000f358       ?System.Data.SQLite.SQLiteKeyReader.GetBoolean@@20010208 10010358 f   System.Data.SQLite.netmodule
 0001:0000f3b4       ?System.Data.SQLite.SQLiteKeyReader.GetByte@@20010508 100103b4 f   System.Data.SQLite.netmodule
 0001:0000f410       ?System.Data.SQLite.SQLiteKeyReader.GetBytes@@20050K080K1N050808 10010410 f   System.Data.SQLite.netmodule
 0001:0000f470       ?System.Data.SQLite.SQLiteKeyReader.GetChar@@20010308 10010470 f   System.Data.SQLite.netmodule
 0001:0000f4cc       ?System.Data.SQLite.SQLiteKeyReader.GetChars@@20050K080K1N030808 100104cc f   System.Data.SQLite.netmodule
 0001:0000f52c       ?System.Data.SQLite.SQLiteKeyReader.GetDateTime@@2001116908 1001052c f   System.Data.SQLite.netmodule
 0001:0000f588       ?System.Data.SQLite.SQLiteKeyReader.GetDecimal@@20011180N908 10010588 f   System.Data.SQLite.netmodule
 0001:0000f5e4       ?System.Data.SQLite.SQLiteKeyReader.GetDouble@@20010N08 100105e4 f   System.Data.SQLite.netmodule
 0001:0000f640       ?System.Data.SQLite.SQLiteKeyReader.GetFloat@@20010M08 10010640 f   System.Data.SQLite.netmodule
 0001:0000f69c       ?System.Data.SQLite.SQLiteKeyReader.GetGuid@@20011180NN08 1001069c f   System.Data.SQLite.netmodule
 0001:0000f6f8       ?System.Data.SQLite.SQLiteKeyReader.GetInt16@@20010608 100106f8 f   System.Data.SQLite.netmodule
 0001:0000f788       ?System.Data.SQLite.SQLiteKeyReader.GetInt32@@20010808 10010788 f   System.Data.SQLite.netmodule
 0001:0000f818       ?System.Data.SQLite.SQLiteKeyReader.GetInt64@@20010K08 10010818 f   System.Data.SQLite.netmodule
 0001:0000f8a8       ?System.Data.SQLite.SQLiteKeyReader.GetString@@20010O08 100108a8 f   System.Data.SQLite.netmodule
 0001:0000f904       ?System.Data.SQLite.SQLiteKeyReader.GetValue@@20011M08 10010904 f   System.Data.SQLite.netmodule
 0001:0000f990       ?System.Data.SQLite.SQLiteKeyReader.IsDBNull@@20010208 10010990 f   System.Data.SQLite.netmodule
 0001:0000fa28       ?System.Data.SQLite.SQLiteKeyReader.AppendSchemaTable@@2001011280K5 10010a28 f   System.Data.SQLite.netmodule
 0001:0000fd2c       ?System.Data.SQLite.SQLiteKeyReader.KeyQuery..ctor@@20040112380O0O1N0O 10010d2c f   System.Data.SQLite.netmodule
 0001:0000fde8       ?System.Data.SQLite.SQLiteKeyReader.KeyQuery.set_IsValid@@20010102 10010de8 f   System.Data.SQLite.netmodule
 0001:0000fe18       ?System.Data.SQLite.SQLiteKeyReader.KeyQuery.Sync@@2001010K 10010e18 f   System.Data.SQLite.netmodule
 0001:0000fe68       ?System.Data.SQLite.SQLiteKeyReader.KeyQuery.Dispose@@200001 10010e68 f   System.Data.SQLite.netmodule
 0001:0000fe84       ?System.Data.SQLite.SQLiteKeyReader.KeyQuery.CheckDisposed@@200001 10010e84 f   System.Data.SQLite.netmodule
 0001:0000feb0       ?System.Data.SQLite.SQLiteKeyReader.KeyQuery.Dispose@@20010102 10010eb0 f   System.Data.SQLite.netmodule
 0001:0000fef0       ?System.Data.SQLite.SQLiteKeyReader.KeyQuery.Finalize@@200001 10010ef0 f   System.Data.SQLite.netmodule
 0001:0000ff2c       ?System.Data.SQLite.LogEventArgs..ctor@@20040118080O1M 10010f2c f   System.Data.SQLite.netmodule
 0001:0000ff58       ?System.Data.SQLite.SQLiteLog.add__handlers@@0001011280P0 10010f58 f   System.Data.SQLite.netmodule
 0001:0000ff7c       ?System.Data.SQLite.SQLiteLog.remove__handlers@@0001011280P0 10010f7c f   System.Data.SQLite.netmodule
 0001:0000ffa0       ?System.Data.SQLite.SQLiteLog.Initialize@@000001 10010fa0 f   System.Data.SQLite.netmodule
 0001:0001007c       ?System.Data.SQLite.SQLiteLog.DomainUnload@@0002011M1225 1001107c f   System.Data.SQLite.netmodule
 0001:0001012c       ?System.Data.SQLite.SQLiteLog.add_Log@@0001011280P0 1001112c f   System.Data.SQLite.netmodule
 0001:00010194       ?System.Data.SQLite.SQLiteLog.remove_Log@@0001011280P0 10011194 f   System.Data.SQLite.netmodule
 0001:000101e8       ?System.Data.SQLite.SQLiteLog.get_Enabled@@000002 100111e8 f   System.Data.SQLite.netmodule
 0001:00010230       ?System.Data.SQLite.SQLiteLog.set_Enabled@@00010102 10011230 f   System.Data.SQLite.netmodule
 0001:00010274       ?System.Data.SQLite.SQLiteLog.LogMessage@@000201080O 10011274 f   System.Data.SQLite.netmodule
 0001:000102d8       ?System.Data.SQLite.SQLiteLog.InitializeDefaultHandler@@000001 100112d8 f   System.Data.SQLite.netmodule
 0001:00010330       ?System.Data.SQLite.SQLiteLog.AddDefaultHandler@@000001 10011330 f   System.Data.SQLite.netmodule
 0001:0001034c       ?System.Data.SQLite.SQLiteLog.RemoveDefaultHandler@@000001 1001134c f   System.Data.SQLite.netmodule
 0001:00010368       ?System.Data.SQLite.SQLiteLog.LogCallback@@000301180818 10011368 f   System.Data.SQLite.netmodule
 0001:000103e4       ?System.Data.SQLite.SQLiteLog.LogEventHandler@@0002011M1280OM 100113e4 f   System.Data.SQLite.netmodule
 0001:00010448       ?System.Data.SQLite.SQLiteLog..cctor@@000001 10011448 f   System.Data.SQLite.netmodule
 0001:00010460       ?System.Data.SQLite.SQLiteMetaDataCollectionNames..cctor@@000001 10011460 f   System.Data.SQLite.netmodule
 0001:000104c8       ?System.Data.SQLite.SQLiteParameter..ctor@@200001 100114c8 f   System.Data.SQLite.netmodule
 0001:000104e4       ?System.Data.SQLite.SQLiteParameter..ctor@@2001010O 100114e4 f   System.Data.SQLite.netmodule
 0001:00010500       ?System.Data.SQLite.SQLiteParameter..ctor@@2002010O1M 10011500 f   System.Data.SQLite.netmodule
 0001:00010524       ?System.Data.SQLite.SQLiteParameter..ctor@@2002010O1179 10011524 f   System.Data.SQLite.netmodule
 0001:00010540       ?System.Data.SQLite.SQLiteParameter..ctor@@2003010O11790O 10011540 f   System.Data.SQLite.netmodule
 0001:0001055c       ?System.Data.SQLite.SQLiteParameter..ctor@@2004010O11790O1180P5 1001155c f   System.Data.SQLite.netmodule
 0001:00010578       ?System.Data.SQLite.SQLiteParameter..ctor@@2001011179 10011578 f   System.Data.SQLite.netmodule
 0001:00010594       ?System.Data.SQLite.SQLiteParameter..ctor@@20020111791M 10011594 f   System.Data.SQLite.netmodule
 0001:000105b8       ?System.Data.SQLite.SQLiteParameter..ctor@@20020111790O 100115b8 f   System.Data.SQLite.netmodule
 0001:000105d4       ?System.Data.SQLite.SQLiteParameter..ctor@@20030111790O1180P5 100115d4 f   System.Data.SQLite.netmodule
 0001:000105ec       ?System.Data.SQLite.SQLiteParameter..ctor@@2003010O117908 100115ec f   System.Data.SQLite.netmodule
 0001:00010608       ?System.Data.SQLite.SQLiteParameter..ctor@@2004010O1179080O 10011608 f   System.Data.SQLite.netmodule
 0001:00010628       ?System.Data.SQLite.SQLiteParameter..ctor@@2005010O1179080O1180P5 10011628 f   System.Data.SQLite.netmodule
 0001:00010668       ?System.Data.SQLite.SQLiteParameter..ctor@@2001011280PM 10011668 f   System.Data.SQLite.netmodule
 0001:000106b4       ?System.Data.SQLite.SQLiteParameter..ctor@@200K010O1179081180P90205050O1180P51M 100116b4 f   System.Data.SQLite.netmodule
 0001:000106e8       ?System.Data.SQLite.SQLiteParameter..ctor@@200K010O1179081180P905050O1180P5021M 100116e8 f   System.Data.SQLite.netmodule
 0001:0001071c       ?System.Data.SQLite.SQLiteParameter..ctor@@200201117908 1001171c f   System.Data.SQLite.netmodule
 0001:00010738       ?System.Data.SQLite.SQLiteParameter..ctor@@2003011179080O 10011738 f   System.Data.SQLite.netmodule
 0001:00010754       ?System.Data.SQLite.SQLiteParameter..ctor@@2004011179080O1180P5 10011754 f   System.Data.SQLite.netmodule
 0001:00010770       ?System.Data.SQLite.SQLiteParameter.get_IsNullable@@200002 10011770 f   System.Data.SQLite.netmodule
 0001:00010784       ?System.Data.SQLite.SQLiteParameter.set_IsNullable@@20010102 10011784 f   System.Data.SQLite.netmodule
 0001:00010798       ?System.Data.SQLite.SQLiteParameter.get_DbType@@20001179 10011798 f   System.Data.SQLite.netmodule
 0001:000107e0       ?System.Data.SQLite.SQLiteParameter.set_DbType@@2001011179 100117e0 f   System.Data.SQLite.netmodule
 0001:000107f4       ?System.Data.SQLite.SQLiteParameter.get_Direction@@20001180P9 100117f4 f   System.Data.SQLite.netmodule
 0001:00010804       ?System.Data.SQLite.SQLiteParameter.set_Direction@@2001011180P9 10011804 f   System.Data.SQLite.netmodule
 0001:0001081c       ?System.Data.SQLite.SQLiteParameter.get_ParameterName@@20000O 1001181c f   System.Data.SQLite.netmodule
 0001:00010830       ?System.Data.SQLite.SQLiteParameter.set_ParameterName@@2001010O 10011830 f   System.Data.SQLite.netmodule
 0001:00010844       ?System.Data.SQLite.SQLiteParameter.ResetDbType@@200001 10011844 f   System.Data.SQLite.netmodule
 0001:00010858       ?System.Data.SQLite.SQLiteParameter.get_Size@@200008 10011858 f   System.Data.SQLite.netmodule
 0001:0001086c       ?System.Data.SQLite.SQLiteParameter.set_Size@@20010108 1001186c f   System.Data.SQLite.netmodule
 0001:00010880       ?System.Data.SQLite.SQLiteParameter.get_SourceColumn@@20000O 10011880 f   System.Data.SQLite.netmodule
 0001:00010894       ?System.Data.SQLite.SQLiteParameter.set_SourceColumn@@2001010O 10011894 f   System.Data.SQLite.netmodule
 0001:000108a8       ?System.Data.SQLite.SQLiteParameter.get_SourceColumnNullMapping@@200002 100118a8 f   System.Data.SQLite.netmodule
 0001:000108bc       ?System.Data.SQLite.SQLiteParameter.set_SourceColumnNullMapping@@20010102 100118bc f   System.Data.SQLite.netmodule
 0001:000108d0       ?System.Data.SQLite.SQLiteParameter.get_SourceVersion@@20001180P5 100118d0 f   System.Data.SQLite.netmodule
 0001:000108e4       ?System.Data.SQLite.SQLiteParameter.set_SourceVersion@@2001011180P5 100118e4 f   System.Data.SQLite.netmodule
 0001:000108f8       ?System.Data.SQLite.SQLiteParameter.get_Value@@20001M 100118f8 f   System.Data.SQLite.netmodule
 0001:0001090c       ?System.Data.SQLite.SQLiteParameter.set_Value@@2001011M 1001190c f   System.Data.SQLite.netmodule
 0001:00010954       ?System.Data.SQLite.SQLiteParameter.Clone@@20001M 10011954 f   System.Data.SQLite.netmodule
 0001:0001096c       ?System.Data.SQLite.SQLiteParameterCollection..ctor@@2001011230 1001196c f   System.Data.SQLite.netmodule
 0001:00010998       ?System.Data.SQLite.SQLiteParameterCollection.get_IsSynchronized@@200002 10011998 f   System.Data.SQLite.netmodule
 0001:000109a8       ?System.Data.SQLite.SQLiteParameterCollection.get_IsFixedSize@@200002 100119a8 f   System.Data.SQLite.netmodule
 0001:000109b8       ?System.Data.SQLite.SQLiteParameterCollection.get_IsReadOnly@@200002 100119b8 f   System.Data.SQLite.netmodule
 0001:000109c8       ?System.Data.SQLite.SQLiteParameterCollection.get_SyncRoot@@20001M 100119c8 f   System.Data.SQLite.netmodule
 0001:000109d8       ?System.Data.SQLite.SQLiteParameterCollection.GetEnumerator@@20001280N5 100119d8 f   System.Data.SQLite.netmodule
 0001:000109f8       ?System.Data.SQLite.SQLiteParameterCollection.Add@@20041280PM0O1179080O 100119f8 f   System.Data.SQLite.netmodule
 0001:00010a1c       ?System.Data.SQLite.SQLiteParameterCollection.Add@@20031280PM0O117908 10011a1c f   System.Data.SQLite.netmodule
 0001:00010a3c       ?System.Data.SQLite.SQLiteParameterCollection.Add@@20021280PM0O1179 10011a3c f   System.Data.SQLite.netmodule
 0001:00010a5c       ?System.Data.SQLite.SQLiteParameterCollection.Add@@2001081280PM 10011a5c f   System.Data.SQLite.netmodule
 0001:00010aac       ?System.Data.SQLite.SQLiteParameterCollection.Add@@2001081M 10011aac f   System.Data.SQLite.netmodule
 0001:00010ac8       ?System.Data.SQLite.SQLiteParameterCollection.AddWithValue@@20021280PM0O1M 10011ac8 f   System.Data.SQLite.netmodule
 0001:00010ae8       ?System.Data.SQLite.SQLiteParameterCollection.AddRange@@2001011N1280PM 10011ae8 f   System.Data.SQLite.netmodule
 0001:00010b10       ?System.Data.SQLite.SQLiteParameterCollection.AddRange@@2001011280PN 10011b10 f   System.Data.SQLite.netmodule
 0001:00010b44       ?System.Data.SQLite.SQLiteParameterCollection.Clear@@200001 10011b44 f   System.Data.SQLite.netmodule
 0001:00010b64       ?System.Data.SQLite.SQLiteParameterCollection.Contains@@2001020O 10011b64 f   System.Data.SQLite.netmodule
 0001:00010b80       ?System.Data.SQLite.SQLiteParameterCollection.Contains@@2001021M 10011b80 f   System.Data.SQLite.netmodule
 0001:00010ba0       ?System.Data.SQLite.SQLiteParameterCollection.CopyTo@@2002011280PN08 10011ba0 f   System.Data.SQLite.netmodule
 0001:00010bb4       ?System.Data.SQLite.SQLiteParameterCollection.get_Count@@200008 10011bb4 f   System.Data.SQLite.netmodule
 0001:00010bcc       ?System.Data.SQLite.SQLiteParameterCollection.get_Item@@20011280PM0O 10011bcc f   System.Data.SQLite.netmodule
 0001:00010be8       ?System.Data.SQLite.SQLiteParameterCollection.set_Item@@2002010O1280PM 10011be8 f   System.Data.SQLite.netmodule
 0001:00010c00       ?System.Data.SQLite.SQLiteParameterCollection.get_Item@@20011280PM08 10011c00 f   System.Data.SQLite.netmodule
 0001:00010c1c       ?System.Data.SQLite.SQLiteParameterCollection.set_Item@@200201081280PM 10011c1c f   System.Data.SQLite.netmodule
 0001:00010c34       ?System.Data.SQLite.SQLiteParameterCollection.GetParameter@@2001124N0O 10011c34 f   System.Data.SQLite.netmodule
 0001:00010c50       ?System.Data.SQLite.SQLiteParameterCollection.GetParameter@@2001124N08 10011c50 f   System.Data.SQLite.netmodule
 0001:00010c6c       ?System.Data.SQLite.SQLiteParameterCollection.IndexOf@@2001080O 10011c6c f   System.Data.SQLite.netmodule
 0001:00010cb0       ?System.Data.SQLite.SQLiteParameterCollection.IndexOf@@2001081M 10011cb0 f   System.Data.SQLite.netmodule
 0001:00010cd0       ?System.Data.SQLite.SQLiteParameterCollection.Insert@@200201081M 10011cd0 f   System.Data.SQLite.netmodule
 0001:00010cf8       ?System.Data.SQLite.SQLiteParameterCollection.Remove@@2001011M 10011cf8 f   System.Data.SQLite.netmodule
 0001:00010d20       ?System.Data.SQLite.SQLiteParameterCollection.RemoveAt@@2001010O 10011d20 f   System.Data.SQLite.netmodule
 0001:00010d3c       ?System.Data.SQLite.SQLiteParameterCollection.RemoveAt@@20010108 10011d3c f   System.Data.SQLite.netmodule
 0001:00010d5c       ?System.Data.SQLite.SQLiteParameterCollection.SetParameter@@2002010O124N 10011d5c f   System.Data.SQLite.netmodule
 0001:00010d78       ?System.Data.SQLite.SQLiteParameterCollection.SetParameter@@20020108124N 10011d78 f   System.Data.SQLite.netmodule
 0001:00010da0       ?System.Data.SQLite.SQLiteParameterCollection.Unbind@@200001 10011da0 f   System.Data.SQLite.netmodule
 0001:00010db4       ?System.Data.SQLite.SQLiteParameterCollection.MapParameters@@200101128104 10011db4 f   System.Data.SQLite.netmodule
 0001:00010f40       ?System.Data.SQLite.SQLiteStatement..ctor@@200501121011281281180O128104 10011f40 f   System.Data.SQLite.netmodule
 0001:00011024       ?System.Data.SQLite.SQLiteStatement.Dispose@@200001 10012024 f   System.Data.SQLite.netmodule
 0001:00011040       ?System.Data.SQLite.SQLiteStatement.CheckDisposed@@200001 10012040 f   System.Data.SQLite.netmodule
 0001:0001106c       ?System.Data.SQLite.SQLiteStatement.Dispose@@20010102 1001206c f   System.Data.SQLite.netmodule
 0001:000110c4       ?System.Data.SQLite.SQLiteStatement.Finalize@@200001 100120c4 f   System.Data.SQLite.netmodule
 0001:00011100       ?System.Data.SQLite.SQLiteStatement.MapParameter@@2002020O1280PM 10012100 f   System.Data.SQLite.netmodule
 0001:00011188       ?System.Data.SQLite.SQLiteStatement.BindParameters@@200001 10012188 f   System.Data.SQLite.netmodule
 0001:000111c4       ?System.Data.SQLite.SQLiteStatement.ToBoolean@@0002021M128101 100121c4 f   System.Data.SQLite.netmodule
 0001:00011320       ?System.Data.SQLite.SQLiteStatement.BindParameter@@200201081280PM 10012320 f   System.Data.SQLite.netmodule
 0001:00011654       ?System.Data.SQLite.SQLiteStatement.get_TypeDefinitions@@20001N0O 10012654 f   System.Data.SQLite.netmodule
 0001:00011668       ?System.Data.SQLite.SQLiteStatement.SetTypes@@2001010O 10012668 f   System.Data.SQLite.netmodule
 0001:00011738       ?System.Data.SQLite.SQLiteTransaction..ctor@@200201123802 10012738 f   System.Data.SQLite.netmodule
 0001:00011820       ?System.Data.SQLite.SQLiteTransaction.CheckDisposed@@200001 10012820 f   System.Data.SQLite.netmodule
 0001:0001184c       ?System.Data.SQLite.SQLiteTransaction.Dispose@@20010102 1001284c f   System.Data.SQLite.netmodule
 0001:000118a4       ?System.Data.SQLite.SQLiteTransaction.Commit@@200001 100128a4 f   System.Data.SQLite.netmodule
 0001:00011930       ?System.Data.SQLite.SQLiteTransaction.get_Connection@@20001238 10012930 f   System.Data.SQLite.netmodule
 0001:0001194c       ?System.Data.SQLite.SQLiteTransaction.get_DbConnection@@20001221 1001294c f   System.Data.SQLite.netmodule
 0001:00011960       ?System.Data.SQLite.SQLiteTransaction.get_IsolationLevel@@20001180K9 10012960 f   System.Data.SQLite.netmodule
 0001:0001197c       ?System.Data.SQLite.SQLiteTransaction.Rollback@@200001 1001297c f   System.Data.SQLite.netmodule
 0001:000119a0       ?System.Data.SQLite.SQLiteTransaction.IssueRollback@@20010102 100129a0 f   System.Data.SQLite.netmodule
 0001:00011a28       ?System.Data.SQLite.SQLiteTransaction.IsValid@@20010202 10012a28 f   System.Data.SQLite.netmodule
 0001:00011ad0       ?System.Data.SQLite.SR..ctor@@200001 10012ad0 f   System.Data.SQLite.netmodule
 0001:00011ae4       ?System.Data.SQLite.SR.get_ResourceManager@@0000128105 10012ae4 f   System.Data.SQLite.netmodule
 0001:00011b24       ?System.Data.SQLite.SR.get_Culture@@0000128109 10012b24 f   System.Data.SQLite.netmodule
 0001:00011b38       ?System.Data.SQLite.SR.set_Culture@@000101128109 10012b38 f   System.Data.SQLite.netmodule
 0001:00011b4c       ?System.Data.SQLite.SR.get_DataTypes@@00000O 10012b4c f   System.Data.SQLite.netmodule
 0001:00011b70       ?System.Data.SQLite.SR.get_Keywords@@00000O 10012b70 f   System.Data.SQLite.netmodule
 0001:00011b94       ?System.Data.SQLite.SR.get_MetaDataCollections@@00000O 10012b94 f   System.Data.SQLite.netmodule
 0001:00011bb8       ?System.Data.SQLite.SQLiteConnectionHandle.op_Implicit@@000118128114 10012bb8 f   System.Data.SQLite.netmodule
 0001:00011bd4       ?System.Data.SQLite.SQLiteConnectionHandle..ctor@@20010118 10012bd4 f   System.Data.SQLite.netmodule
 0001:00011bf0       ?System.Data.SQLite.SQLiteConnectionHandle..ctor@@200001 10012bf0 f   System.Data.SQLite.netmodule
 0001:00011c08       ?System.Data.SQLite.SQLiteConnectionHandle.ReleaseHandle@@200002 10012c08 f   System.Data.SQLite.netmodule
 0001:00011c80       ?System.Data.SQLite.SQLiteConnectionHandle.get_IsInvalid@@200002 10012c80 f   System.Data.SQLite.netmodule
 0001:00011ca0       ?System.Data.SQLite.SQLiteStatementHandle.op_Implicit@@000118128118 10012ca0 f   System.Data.SQLite.netmodule
 0001:00011cbc       ?System.Data.SQLite.SQLiteStatementHandle..ctor@@20020112811418 10012cbc f   System.Data.SQLite.netmodule
 0001:00011ce0       ?System.Data.SQLite.SQLiteStatementHandle..ctor@@200001 10012ce0 f   System.Data.SQLite.netmodule
 0001:00011cf8       ?System.Data.SQLite.SQLiteStatementHandle.ReleaseHandle@@200002 10012cf8 f   System.Data.SQLite.netmodule
 0001:00011d74       ?System.Data.SQLite.SQLiteStatementHandle.get_IsInvalid@@200002 10012d74 f   System.Data.SQLite.netmodule
 0001:00011d94       ?System.Data.SQLite.SQLiteBackupHandle.op_Implicit@@00011812811M 10012d94 f   System.Data.SQLite.netmodule
 0001:00011db0       ?System.Data.SQLite.SQLiteBackupHandle..ctor@@20020112811418 10012db0 f   System.Data.SQLite.netmodule
 0001:00011dd4       ?System.Data.SQLite.SQLiteBackupHandle..ctor@@200001 10012dd4 f   System.Data.SQLite.netmodule
 0001:00011dec       ?System.Data.SQLite.SQLiteBackupHandle.ReleaseHandle@@200002 10012dec f   System.Data.SQLite.netmodule
 0001:00011e68       ?System.Data.SQLite.SQLiteBackupHandle.get_IsInvalid@@200002 10012e68 f   System.Data.SQLite.netmodule
 0001:00011e88       ?System.Data.SQLite.SQLiteEnlistment..ctor@@20020112381280LN 10012e88 f   System.Data.SQLite.netmodule
 0001:00011ebc       ?System.Data.SQLite.SQLiteEnlistment.Dispose@@200001 10012ebc f   System.Data.SQLite.netmodule
 0001:00011ed8       ?System.Data.SQLite.SQLiteEnlistment.CheckDisposed@@200001 10012ed8 f   System.Data.SQLite.netmodule
 0001:00011f04       ?System.Data.SQLite.SQLiteEnlistment.Dispose@@20010102 10012f04 f   System.Data.SQLite.netmodule
 0001:00011f54       ?System.Data.SQLite.SQLiteEnlistment.Finalize@@200001 10012f54 f   System.Data.SQLite.netmodule
 0001:00011f90       ?System.Data.SQLite.SQLiteEnlistment.Cleanup@@2001011238 10012f90 f   System.Data.SQLite.netmodule
 0001:00011fbc       ?System.Data.SQLite.SQLiteEnlistment.Commit@@20010112810N 10012fbc f   System.Data.SQLite.netmodule
 0001:00012038       ?System.Data.SQLite.SQLiteEnlistment.InDoubt@@20010112810N 10013038 f   System.Data.SQLite.netmodule
 0001:00012054       ?System.Data.SQLite.SQLiteEnlistment.Prepare@@200101128111 10013054 f   System.Data.SQLite.netmodule
 0001:00012084       ?System.Data.SQLite.SQLiteEnlistment.Rollback@@20010112810N 10013084 f   System.Data.SQLite.netmodule
 0001:00012100       _sqlite3_context_collseq@16 10013100 f   interop.obj
 0001:00012170       _sqlite3_context_collcompare@20 10013170 f   interop.obj
 0001:000121b0       _sqlite3Codec              100131b0 f   interop.obj
 0001:00012340       _sqlite3_activate_see      10013340 f   interop.obj
 0001:00012370       _double_cmp                10013370 f   interop.obj
 0001:000123b0       _int_cmp                   100133b0 f   interop.obj
 0001:00012400       _node_iterate              10013400 f   interop.obj
 0001:00012450       _xfree                     10013450 f   interop.obj
 0001:00012460       _xcalloc                   10013460 f   interop.obj
 0001:00012470       _map_make                  10013470 f   interop.obj
 0001:000126a0       _isblank                   100136a0 f   interop.obj
 0001:000140b0       _sqlite3_thread_cleanup    100150b0 f   interop.obj
 0001:000140c0       _sqlite3_get_autocommit    100150c0 f   interop.obj
 0001:000140d0       _sqlite3_global_recover    100150d0 f   interop.obj
 0001:000140e0       _sqlite3_limit             100150e0 f   interop.obj
 0001:00014130       _sqlite3_interrupt         10015130 f   interop.obj
 0001:00014190       _sqlite3_total_changes     10015190 f   interop.obj
 0001:000141a0       _sqlite3_changes           100151a0 f   interop.obj
 0001:000141b0       _sqlite3_last_insert_rowid 100151b0 f   interop.obj
 0001:000141e0       _sqlite3_db_mutex          100151e0 f   interop.obj
 0001:000141f0       _sqlite3_threadsafe        100151f0 f   interop.obj
 0001:00014200       _sqlite3_libversion_number 10015200 f   interop.obj
 0001:00014210       _sqlite3_sourceid          10015210 f   interop.obj
 0001:00014220       _sqlite3_libversion        10015220 f   interop.obj
 0001:00014630       _sqlite3_vtab_on_conflict  10015630 f   interop.obj
 0001:00015b70       _sqlite3_blob_bytes        10016b70 f   interop.obj
 0001:00015bc0       _sqlite3_stmt_status       10016bc0 f   interop.obj
 0001:00015be0       _sqlite3_stmt_busy         10016be0 f   interop.obj
 0001:00015c00       _sqlite3_stmt_readonly     10016c00 f   interop.obj
 0001:00015c20       _sqlite3_db_handle         10016c20 f   interop.obj
 0001:00015ce0       _sqlite3_bind_parameter_name 10016ce0 f   interop.obj
 0001:00015d10       _sqlite3_bind_parameter_count 10016d10 f   interop.obj
 0001:00015d20       _sqlite3_data_count        10016d20 f   interop.obj
 0001:00015d40       _sqlite3_column_count      10016d40 f   interop.obj
 0001:00015d50       _sqlite3_aggregate_count   10016d50 f   interop.obj
 0001:00015d60       _sqlite3_get_auxdata       10016d60 f   interop.obj
 0001:00015d80       _sqlite3_context_db_handle 10016d80 f   interop.obj
 0001:00015d90       _sqlite3_user_data         10016d90 f   interop.obj
 0001:00015da0       _sqlite3_value_type        10016da0 f   interop.obj
 0001:00015db0       _sqlite3_value_text        10016db0 f   interop.obj
 0001:00015dc0       _sqlite3_expired           10016dc0 f   interop.obj
 0001:000161b0       _sqlite3_sql               100171b0 f   interop.obj
 0001:00016310       _sqlite3_backup_pagecount  10017310 f   interop.obj
 0001:00016320       _sqlite3_backup_remaining  10017320 f   interop.obj
 0001:000166c0       _sqlite3_enable_shared_cache 100176c0 f   interop.obj
 0001:00017500       _sqlite3_os_end            10018500 f   interop.obj
 0001:00017730       _sqlite3_win32_sleep       10018730 f   interop.obj
 0001:00017740       _sqlite3_win32_write_debug 10018740 f   interop.obj
 0001:00018430       _sqlite3_strnicmp          10019430 f   interop.obj
 0001:00018490       _sqlite3_stricmp           10019490 f   interop.obj
 0001:000188b0       _sqlite3_release_memory    100198b0 f   interop.obj
 0001:00018a10       _sqlite3_mutex_leave       10019a10 f   interop.obj
 0001:00018a30       _sqlite3_mutex_try         10019a30 f   interop.obj
 0001:00018a50       _sqlite3_mutex_enter       10019a50 f   interop.obj
 0001:00018a70       _sqlite3_mutex_free        10019a70 f   interop.obj
 0001:00018ab0       _sqlite3_mutex_alloc       10019ab0 f   interop.obj
 0001:00018b60       _sqlite3_vfs_find          10019b60 f   interop.obj
 0001:000192b0       _sqlite3_compileoption_get 1001a2b0 f   interop.obj
 0001:000192d0       _sqlite3_compileoption_used 1001a2d0 f   interop.obj
 0001:00019390       _sqlite3_table_cursor@12   1001a390 f   interop.obj
 0001:00019420       _sqlite3_value_text_interop@8 1001a420 f   interop.obj
 0001:00019460       _sqlite3_bind_parameter_name_interop@12 1001a460 f   interop.obj
 0001:000194b0       _sqlite3CodecGetKey        1001a4b0 f   interop.obj
 0001:000195a0       _node_destroy              1001a5a0 f   interop.obj
 0001:000195f0       _map_iterate               1001a5f0 f   interop.obj
 0001:00019600       _node_insert               1001a600 f   interop.obj
 0001:0001a480       _sqlite3_uri_parameter     1001b480 f   interop.obj
 0001:0001a530       _sqlite3_extended_result_codes 1001b530 f   interop.obj
 0001:0001a570       _sqlite3_sleep             1001b570 f   interop.obj
 0001:0001a5b0       _sqlite3_collation_needed16 1001b5b0 f   interop.obj
 0001:0001a600       _sqlite3_collation_needed  1001b600 f   interop.obj
 0001:0001a650       _sqlite3_wal_hook          1001b650 f   interop.obj
 0001:0001a6a0       _sqlite3_rollback_hook     1001b6a0 f   interop.obj
 0001:0001a6f0       _sqlite3_update_hook       1001b6f0 f   interop.obj
 0001:0001a740       _sqlite3_commit_hook       1001b740 f   interop.obj
 0001:0001a790       _sqlite3_profile           1001b790 f   interop.obj
 0001:0001a7e0       _sqlite3_trace             1001b7e0 f   interop.obj
 0001:0001a830       _sqlite3_progress_handler  1001b830 f   interop.obj
 0001:0001a8a0       _sqlite3_busy_handler      1001b8a0 f   interop.obj
 0001:0001aaa0       _sqlite3_complete          1001baa0 f   interop.obj
 0001:0001b310       _sqlite3_enable_load_extension 1001c310 f   interop.obj
 0001:0001b8a0       _sqlite3_set_authorizer    1001c8a0 f   interop.obj
 0001:0001c030       _sqlite3_next_stmt         1001d030 f   interop.obj
 0001:0001c070       _sqlite3_bind_parameter_index 1001d070 f   interop.obj
 0001:0001c190       _sqlite3_value_bytes16     1001d190 f   interop.obj
 0001:0001c1c0       _sqlite3_value_bytes       1001d1c0 f   interop.obj
 0001:0001c1f0       _sqlite3_value_blob        1001d1f0 f   interop.obj
 0001:0001e180       _sqlite3_free              1001f180 f   interop.obj
 0001:0001e4b0       _sqlite3_vfs_unregister    1001f4b0 f   interop.obj
 0001:0001e500       _sqlite3_vfs_register      1001f500 f   interop.obj
 0001:0001e7b0       _map_destroy               1001f7b0 f   interop.obj
 0001:0001e7f0       _map_insert                1001f7f0 f   interop.obj
 0001:0001f720       _sqlite3_db_readonly       10020720 f   interop.obj
 0001:0001f750       _sqlite3_db_filename       10020750 f   interop.obj
 0001:0001f780       _sqlite3_uri_int64         10020780 f   interop.obj
 0001:0001f7e0       _sqlite3_busy_timeout      100207e0 f   interop.obj
 0001:00020060       _sqlite3_free_table        10021060 f   interop.obj
 0001:000208a0       _sqlite3_column_origin_name 100218a0 f   interop.obj
 0001:000208c0       _sqlite3_column_table_name 100218c0 f   interop.obj
 0001:000208e0       _sqlite3_column_database_name 100218e0 f   interop.obj
 0001:00020900       _sqlite3_column_decltype   10021900 f   interop.obj
 0001:00020920       _sqlite3_column_name       10021920 f   interop.obj
 0001:00020940       _sqlite3_value_double      10021940 f   interop.obj
 0001:00021f80       _sqlite3_randomness        10022f80 f   interop.obj
 0001:00022130       _sqlite3_memory_alarm      10023130 f   interop.obj
 0001:00022280       _sqlite3_column_origin_name_interop@12 10023280 f   interop.obj
 0001:000222d0       _sqlite3_column_table_name_interop@12 100232d0 f   interop.obj
 0001:00022320       _sqlite3_column_database_name_interop@12 10023320 f   interop.obj
 0001:00022370       _sqlite3_value_double_interop@8 10023370 f   interop.obj
 0001:000223e0       _sqlite3_column_decltype_interop@12 100233e0 f   interop.obj
 0001:00022430       _sqlite3_column_name_interop@12 10023430 f   interop.obj
 0001:00023b90       _sqlite3_file_control      10024b90 f   interop.obj
 0001:00024780       _sqlite3_value_numeric_type 10025780 f   interop.obj
 0001:000247d0       _sqlite3_value_int64       100257d0 f   interop.obj
 0001:000247e0       _sqlite3_value_int         100257e0 f   interop.obj
 0001:00025b00       _sqlite3_index_column_info_interop@32 10026b00 f   interop.obj
 0001:00025c30       _sqlite3_value_int64_interop@8 10026c30 f   interop.obj
 0001:00026220       _sqlite3_uri_boolean       10027220 f   interop.obj
 0001:00026260       _sqlite3_db_release_memory 10027260 f   interop.obj
 0001:00028a10       _sqlite3_malloc            10029a10 f   interop.obj
 0001:00029fc0       _sqlite3_db_config         1002afc0 f   interop.obj
 0001:0002a8c0       _sqlite3_aggregate_context 1002b8c0 f   interop.obj
 0001:0002a930       _sqlite3_result_error_nomem 1002b930 f   interop.obj
 0001:0002a990       _sqlite3_result_null       1002b990 f   interop.obj
 0001:0002bf50       _sqlite3CodecSizeChange    1002cf50 f   interop.obj
 0001:0002da20       _sqlite3_result_value      1002ea20 f   interop.obj
 0001:0002da40       _sqlite3_clear_bindings    1002ea40 f   interop.obj
 0001:0002ef00       _sqlite3_win32_utf8_to_mbcs 1002ff00 f   interop.obj
 0001:0002ef40       _sqlite3_win32_mbcs_to_utf8 1002ff40 f   interop.obj
 0001:0002f000       _sqlite3_vsnprintf         10030000 f   interop.obj
 0001:0002f070       _sqlite3_vmprintf          10030070 f   interop.obj
 0001:000301d0       _sqlite3_result_error_toobig 100311d0 f   interop.obj
 0001:00030200       _sqlite3_result_error_code 10031200 f   interop.obj
 0001:00030260       _sqlite3_result_zeroblob   10031260 f   interop.obj
 0001:000302d0       _sqlite3_result_int64      100312d0 f   interop.obj
 0001:00030330       _sqlite3_result_int        10031330 f   interop.obj
 0001:00030390       _sqlite3_result_error16    10031390 f   interop.obj
 0001:000303c0       _sqlite3_result_error      100313c0 f   interop.obj
 0001:000303f0       _sqlite3_result_double     100313f0 f   interop.obj
 0001:00030c90       _sqlite3_log               10031c90 f   interop.obj
 0001:00030cc0       _sqlite3_snprintf          10031cc0 f   interop.obj
 0001:00030ce0       _sqlite3_mprintf           10031ce0 f   interop.obj
 0001:00030f80       _sqlite3_result_int64_interop@8 10031f80 f   interop.obj
 0001:00030fe0       _sqlite3_result_double_interop@8 10031fe0 f   interop.obj
 0001:00031010       _sqlite3CodecAttach        10032010 f   interop.obj
 0001:00032e20       _sqlite3_test_control      10033e20 f   interop.obj
 0001:00033c30       _sqlite3_vtab_config       10034c30 f   interop.obj
 0001:00036770       _sqlite3_transfer_bindings 10037770 f   interop.obj
 0001:00036990       _sqlite3_result_text16le   10037990 f   interop.obj
 0001:000369e0       _sqlite3_result_text16be   100379e0 f   interop.obj
 0001:00036a30       _sqlite3_result_text16     10037a30 f   interop.obj
 0001:00036a80       _sqlite3_result_text       10037a80 f   interop.obj
 0001:00036ad0       _sqlite3_result_blob       10037ad0 f   interop.obj
 0001:00038850       _sqlite3_status            10039850 f   interop.obj
 0001:000388b0       _sqlite3_key               100398b0 f   interop.obj
 0001:0003a3c0       _sqlite3_create_collation_v2 1003b3c0 f   interop.obj
 0001:0003a440       _sqlite3_create_collation  1003b440 f   interop.obj
 0001:0003a4c0       _sqlite3_overload_function 1003b4c0 f   interop.obj
 0001:0003a580       _sqlite3_create_function_v2 1003b580 f   interop.obj
 0001:0003a670       _sqlite3_create_function   1003b670 f   interop.obj
 0001:0003a900       _sqlite3_create_module_v2  1003b900 f   interop.obj
 0001:0003a910       _sqlite3_create_module     1003b910 f   interop.obj
 0001:0003adb0       _sqlite3_load_extension    1003bdb0 f   interop.obj
 0001:0003d900       _sqlite3_column_type       1003e900 f   interop.obj
 0001:0003d930       _sqlite3_column_value      1003e930 f   interop.obj
 0001:0003d970       _sqlite3_column_text       1003e970 f   interop.obj
 0001:0003d9a0       _sqlite3_column_int64      1003e9a0 f   interop.obj
 0001:0003d9e0       _sqlite3_column_int        1003e9e0 f   interop.obj
 0001:0003da10       _sqlite3_column_double     1003ea10 f   interop.obj
 0001:0003daa0       _sqlite3_column_bytes16    1003eaa0 f   interop.obj
 0001:0003db00       _sqlite3_column_bytes      1003eb00 f   interop.obj
 0001:0003db60       _sqlite3_column_blob       1003eb60 f   interop.obj
 0001:0003e6b0       _sqlite3_memory_highwater  1003f6b0 f   interop.obj
 0001:0003e6e0       _sqlite3_memory_used       1003f6e0 f   interop.obj
 0001:0003e7b0       _sqlite3_db_status         1003f7b0 f   interop.obj
 0001:0003ea70       _sqlite3_create_function_interop@36 1003fa70 f   interop.obj
 0001:0003eaf0       _sqlite3_column_text_interop@12 1003faf0 f   interop.obj
 0001:0003eb50       _sqlite3_column_int64_interop@12 1003fb50 f   interop.obj
 0001:0003eb90       _sqlite3_column_double_interop@12 1003fb90 f   interop.obj
 0001:0003ebb0       _RegisterExtensionFunctions 1003fbb0 f   interop.obj
 0001:0003ed90       _sqlite3_rtree_geometry_callback 1003fd90 f   interop.obj
 0001:0003eed0       _sqlite3_extended_errcode  1003fed0 f   interop.obj
 0001:0003ef30       _sqlite3_errcode           1003ff30 f   interop.obj
 0001:0003efa0       _sqlite3_errmsg            1003ffa0 f   interop.obj
 0001:00041d10       _sqlite3_errmsg_interop@8  10042d10 f   interop.obj
 0001:00041d50       _sqlite3_config            10042d50 f   interop.obj
 0001:000426d0       _sqlite3_bind_zeroblob     100436d0 f   interop.obj
 0001:00042720       _sqlite3_bind_null         10043720 f   interop.obj
 0001:00042750       _sqlite3_bind_int64        10043750 f   interop.obj
 0001:000427e0       _sqlite3_bind_int          100437e0 f   interop.obj
 0001:00042800       _sqlite3_bind_double       10043800 f   interop.obj
 0001:00042cb0       _sqlite3_os_init           10043cb0 f   interop.obj
 0001:000432b0       _sqlite3_bind_int64_interop@12 100442b0 f   interop.obj
 0001:000432e0       _sqlite3_bind_double_interop@12 100442e0 f   interop.obj
 0001:00044830       _sqlite3_initialize        10045830 f   interop.obj
 0001:000449f0       _sqlite3_reset_auto_extension 100459f0 f   interop.obj
 0001:00044db0       _sqlite3_win32_set_directory 10045db0 f   interop.obj
 0001:00044e20       _sqlite3_realloc           10045e20 f   interop.obj
 0001:00044e50       _sqlite3_soft_heap_limit64 10045e50 f   interop.obj
 0001:00045d40       _sqlite3_shutdown          10046d40 f   interop.obj
 0001:00045fe0       _sqlite3_auto_extension    10046fe0 f   interop.obj
 0001:000464e0       _sqlite3_soft_heap_limit   100474e0 f   interop.obj
 0001:000475f0       _sqlite3_set_auxdata       100485f0 f   interop.obj
 0001:0004f310       _sqlite3_create_collation16 10050310 f   interop.obj
 0001:0004f3b0       _sqlite3_create_function16 100503b0 f   interop.obj
 0001:000520e0       _sqlite3_bind_text16       100530e0 f   interop.obj
 0001:00052110       _sqlite3_bind_text         10053110 f   interop.obj
 0001:00052140       _sqlite3_bind_blob         10053140 f   interop.obj
 0001:00052d60       _sqlite3_complete16        10053d60 f   interop.obj
 0001:00052f70       _sqlite3_bind_value        10053f70 f   interop.obj
 0001:00053100       _sqlite3_value_text16le    10054100 f   interop.obj
 0001:00053110       _sqlite3_value_text16be    10054110 f   interop.obj
 0001:00053120       _sqlite3_value_text16      10054120 f   interop.obj
 0001:00053b10       _sqlite3_value_text16_interop@8 10054b10 f   interop.obj
 0001:00053b60       _sqlite3_errmsg16          10054b60 f   interop.obj
 0001:00053d80       _sqlite3_wal_checkpoint_v2 10054d80 f   interop.obj
 0001:000548e0       _sqlite3_column_origin_name16 100558e0 f   interop.obj
 0001:00054900       _sqlite3_column_table_name16 10055900 f   interop.obj
 0001:00054920       _sqlite3_column_database_name16 10055920 f   interop.obj
 0001:00054940       _sqlite3_column_decltype16 10055940 f   interop.obj
 0001:00054960       _sqlite3_column_name16     10055960 f   interop.obj
 0001:00054980       _sqlite3_column_text16     10055980 f   interop.obj
 0001:000553e0       _sqlite3_column_origin_name16_interop@12 100563e0 f   interop.obj
 0001:00055430       _sqlite3_column_table_name16_interop@12 10056430 f   interop.obj
 0001:00055480       _sqlite3_column_database_name16_interop@12 10056480 f   interop.obj
 0001:000554d0       _sqlite3_column_text16_interop@12 100564d0 f   interop.obj
 0001:00055530       _sqlite3_column_decltype16_interop@12 10056530 f   interop.obj
 0001:00055580       _sqlite3_column_name16_interop@12 10056580 f   interop.obj
 0001:000555d0       _sqlite3_wal_checkpoint    100565d0 f   interop.obj
 0001:00058390       _sqlite3_wal_autocheckpoint 10059390 f   interop.obj
 0001:00062fe0       _sqlite3_backup_init       10063fe0 f   interop.obj
 0001:0006a720       _sqlite3_backup_finish     1006b720 f   interop.obj
 0001:0006b020       _sqlite3_close_v2          1006c020 f   interop.obj
 0001:0006b030       _sqlite3_close             1006c030 f   interop.obj
 0001:0006e320       _sqlite3_backup_step       1006f320 f   interop.obj
 0001:0006ef20       _sqlite3_cursor_rowid@12   1006ff20 f   interop.obj
 0001:0006efc0       _sqlite3_close_interop@4   1006ffc0 f   interop.obj
 0001:0006efe0       _sqlite3_rekey             1006ffe0 f   interop.obj
 0001:000748e0       _sqlite3_reset             100758e0 f   interop.obj
 0001:000749f0       _sqlite3_reset_interop@4   100759f0 f   interop.obj
 0001:00077ab0       _sqlite3_finalize          10078ab0 f   interop.obj
 0001:00077b40       _sqlite3_finalize_interop@4 10078b40 f   interop.obj
 0001:00078ce0       _sqlite3_blob_write        10079ce0 f   interop.obj
 0001:00078d10       _sqlite3_blob_read         10079d10 f   interop.obj
 0001:00078d40       _sqlite3_blob_close        10079d40 f   interop.obj
 0001:00080e60       _sqlite3_declare_vtab      10081e60 f   interop.obj
 0001:00081790       _sqlite3_prepare_v2        10082790 f   interop.obj
 0001:000817c0       _sqlite3_prepare           100827c0 f   interop.obj
 0001:00081f30       _sqlite3_prepare_interop@24 10082f30 f   interop.obj
 0001:00082520       _sqlite3_prepare16_v2      10083520 f   interop.obj
 0001:00082550       _sqlite3_prepare16         10083550 f   interop.obj
 0001:000826b0       _sqlite3_prepare16_interop@24 100836b0 f   interop.obj
 0001:00088510       _sqlite3_step              10089510 f   interop.obj
 0001:0008a330       _sqlite3_exec              1008b330 f   interop.obj
 0001:0008c0f0       _sqlite3_get_table         1008d0f0 f   interop.obj
 0001:0008c7c0       _sqlite3_blob_reopen       1008d7c0 f   interop.obj
 0001:0008c8a0       _sqlite3_blob_open         1008d8a0 f   interop.obj
 0001:00090910       _sqlite3_table_column_metadata 10091910 f   interop.obj
 0001:00090bd0       _sqlite3_table_column_metadata_interop@44 10091bd0 f   interop.obj
 0001:00094ec0       _sqlite3_open16            10095ec0 f   interop.obj
 0001:00094fc0       _sqlite3_open_v2           10095fc0 f   interop.obj
 0001:00094fd0       _sqlite3_open              10095fd0 f   interop.obj
 0001:00094ff0       _sqlite3_open_interop@12   10095ff0 f   interop.obj
 0001:000959d0       _sqlite3_open16_interop@12 100969d0 f   interop.obj
 0001:000987d2       _memcpy                    100997d2 f   MSVCRT:MSVCR90.dll
 0001:000987e0       _memset                    100997e0 f   MSVCRT:MSVCR90.dll
 0001:000987e6       __CItanh                   100997e6 f   MSVCRT:MSVCR90.dll
 0001:000987ec       __CItan                    100997ec f   MSVCRT:MSVCR90.dll
 0001:000987f2       __CIlog                    100997f2 f   MSVCRT:MSVCR90.dll
 0001:000987f8       __CIsqrt                   100997f8 f   MSVCRT:MSVCR90.dll
 0001:00098800       __allrem                   10099800 f   MSVCRT:llrem.obj
 0001:000988c0       __allshr                   100998c0 f   MSVCRT:llshr.obj
 0001:000988f0       __allmul                   100998f0 f   MSVCRT:llmul.obj
 0001:00098930       __allshl                   10099930 f   MSVCRT:llshl.obj
 0001:00098950       __ftol2_sse                10099950 f   MSVCRT:ftol2.obj
 0001:00098959       __ftol2_pentium4           10099959 f   MSVCRT:ftol2.obj
 0001:0009896c       __ftol2_sse_excpt          1009996c f   MSVCRT:ftol2.obj
 0001:00098986       __ftol2                    10099986 f   MSVCRT:ftol2.obj
 0001:00098a00       __alldiv                   10099a00 f   MSVCRT:lldiv.obj
 0001:00098ab0       __chkstk                   10099ab0 f   MSVCRT:chkstk.obj
 0001:00098ab0       __alloca_probe             10099ab0     MSVCRT:chkstk.obj
 0001:00098ae0       __aullshr                  10099ae0 f   MSVCRT:ullshr.obj
 0001:00098b00       __alldvrm                  10099b00 f   MSVCRT:lldvrm.obj
 0001:00098be0       __aullrem                  10099be0 f   MSVCRT:ullrem.obj
 0001:00098c60       __aulldvrm                 10099c60 f   MSVCRT:ulldvrm.obj
 0001:00098cf6       _floor                     10099cf6 f   MSVCRT:MSVCR90.dll
 0001:00098cfc       __CIatan2                  10099cfc f   MSVCRT:MSVCR90.dll
 0001:00098d02       __CIpow                    10099d02 f   MSVCRT:MSVCR90.dll
 0001:00098d08       __CIexp                    10099d08 f   MSVCRT:MSVCR90.dll
 0001:00098d0e       __CIlog10                  10099d0e f   MSVCRT:MSVCR90.dll
 0001:00098d14       __CIcosh                   10099d14 f   MSVCRT:MSVCR90.dll
 0001:00098d1a       __CIsinh                   10099d1a f   MSVCRT:MSVCR90.dll
 0001:00098d20       __CIcos                    10099d20 f   MSVCRT:MSVCR90.dll
 0001:00098d26       __CIsin                    10099d26 f   MSVCRT:MSVCR90.dll
 0001:00098d2c       __CIatan                   10099d2c f   MSVCRT:MSVCR90.dll
 0001:00098d32       __CIasin                   10099d32 f   MSVCRT:MSVCR90.dll
 0001:00098d38       __CIacos                   10099d38 f   MSVCRT:MSVCR90.dll
 0001:00098d8e       __get_sse2_info            10099d8e f   MSVCRT:cpu_disp.obj
 0001:00098df0       ___sse2_available_init     10099df0 f   MSVCRT:cpu_disp.obj
 0001:00098dfe       __CorDllMain@12            10099dfe f   mscoree:mscoree.dll
 0002:00000000       __imp__CryptDuplicateKey@16 1009a000     advapi32:ADVAPI32.dll
 0002:00000004       __imp__CryptHashData@16    1009a004     advapi32:ADVAPI32.dll
 0002:00000008       __imp__CryptDestroyHash@4  1009a008     advapi32:ADVAPI32.dll
 0002:0000000c       __imp__CryptDecrypt@24     1009a00c     advapi32:ADVAPI32.dll
 0002:00000010       __imp__CryptDestroyKey@4   1009a010     advapi32:ADVAPI32.dll
 0002:00000014       __imp__CryptCreateHash@20  1009a014     advapi32:ADVAPI32.dll
 0002:00000018       __imp__CryptEncrypt@28     1009a018     advapi32:ADVAPI32.dll
 0002:0000001c       __imp__CryptDeriveKey@20   1009a01c     advapi32:ADVAPI32.dll
 0002:00000020       __imp__CryptAcquireContextW@20 1009a020     advapi32:ADVAPI32.dll
 0002:00000024       \177ADVAPI32_NULL_THUNK_DATA 1009a024     advapi32:ADVAPI32.dll
 0002:00000028       __imp__FreeLibrary@4       1009a028     kernel32:KERNEL32.dll
 0002:0000002c       __imp__HeapAlloc@12        1009a02c     kernel32:KERNEL32.dll
 0002:00000030       __imp__SystemTimeToFileTime@8 1009a030     kernel32:KERNEL32.dll
 0002:00000034       __imp__QueryPerformanceCounter@4 1009a034     kernel32:KERNEL32.dll
 0002:00000038       __imp__HeapFree@12         1009a038     kernel32:KERNEL32.dll
 0002:0000003c       __imp__WaitForSingleObject@8 1009a03c     kernel32:KERNEL32.dll
 0002:00000040       __imp__InterlockedCompareExchange@12 1009a040     kernel32:KERNEL32.dll
 0002:00000044       __imp__UnlockFile@20       1009a044     kernel32:KERNEL32.dll
 0002:00000048       __imp__LockFile@20         1009a048     kernel32:KERNEL32.dll
 0002:0000004c       __imp__OutputDebugStringW@4 1009a04c     kernel32:KERNEL32.dll
 0002:00000050       __imp__GetTickCount@0      1009a050     kernel32:KERNEL32.dll
 0002:00000054       __imp__UnlockFileEx@20     1009a054     kernel32:KERNEL32.dll
 0002:00000058       __imp__GetProcessHeap@0    1009a058     kernel32:KERNEL32.dll
 0002:0000005c       __imp__GetSystemTimeAsFileTime@4 1009a05c     kernel32:KERNEL32.dll
 0002:00000060       __imp__FormatMessageA@28   1009a060     kernel32:KERNEL32.dll
 0002:00000064       __imp__WriteFile@20        1009a064     kernel32:KERNEL32.dll
 0002:00000068       __imp__InitializeCriticalSection@4 1009a068     kernel32:KERNEL32.dll
 0002:0000006c       __imp__WideCharToMultiByte@32 1009a06c     kernel32:KERNEL32.dll
 0002:00000070       __imp__LoadLibraryW@4      1009a070     kernel32:KERNEL32.dll
 0002:00000074       __imp__Sleep@4             1009a074     kernel32:KERNEL32.dll
 0002:00000078       __imp__FormatMessageW@28   1009a078     kernel32:KERNEL32.dll
 0002:0000007c       __imp__HeapDestroy@4       1009a07c     kernel32:KERNEL32.dll
 0002:00000080       __imp__LeaveCriticalSection@4 1009a080     kernel32:KERNEL32.dll
 0002:00000084       __imp__GetFileAttributesA@4 1009a084     kernel32:KERNEL32.dll
 0002:00000088       __imp__HeapCreate@12       1009a088     kernel32:KERNEL32.dll
 0002:0000008c       __imp__HeapValidate@12     1009a08c     kernel32:KERNEL32.dll
 0002:00000090       __imp__GetFileAttributesW@4 1009a090     kernel32:KERNEL32.dll
 0002:00000094       __imp__SetEndOfFile@4      1009a094     kernel32:KERNEL32.dll
 0002:00000098       __imp__CreateFileW@28      1009a098     kernel32:KERNEL32.dll
 0002:0000009c       __imp__MultiByteToWideChar@24 1009a09c     kernel32:KERNEL32.dll
 0002:000000a0       __imp__FlushFileBuffers@4  1009a0a0     kernel32:KERNEL32.dll
 0002:000000a4       __imp__GetTempPathW@8      1009a0a4     kernel32:KERNEL32.dll
 0002:000000a8       __imp__GetLastError@0      1009a0a8     kernel32:KERNEL32.dll
 0002:000000ac       __imp__GetProcAddress@8    1009a0ac     kernel32:KERNEL32.dll
 0002:000000b0       __imp__HeapSize@12         1009a0b0     kernel32:KERNEL32.dll
 0002:000000b4       __imp__LockFileEx@24       1009a0b4     kernel32:KERNEL32.dll
 0002:000000b8       __imp__EnterCriticalSection@4 1009a0b8     kernel32:KERNEL32.dll
 0002:000000bc       __imp__GetDiskFreeSpaceW@20 1009a0bc     kernel32:KERNEL32.dll
 0002:000000c0       __imp__LoadLibraryA@4      1009a0c0     kernel32:KERNEL32.dll
 0002:000000c4       __imp__CreateFileMappingW@24 1009a0c4     kernel32:KERNEL32.dll
 0002:000000c8       __imp__GetDiskFreeSpaceA@20 1009a0c8     kernel32:KERNEL32.dll
 0002:000000cc       __imp__GetSystemInfo@4     1009a0cc     kernel32:KERNEL32.dll
 0002:000000d0       __imp__GetFileAttributesExW@12 1009a0d0     kernel32:KERNEL32.dll
 0002:000000d4       __imp__DeleteCriticalSection@4 1009a0d4     kernel32:KERNEL32.dll
 0002:000000d8       __imp__OutputDebugStringA@4 1009a0d8     kernel32:KERNEL32.dll
 0002:000000dc       __imp__GetVersionExA@4     1009a0dc     kernel32:KERNEL32.dll
 0002:000000e0       __imp__CloseHandle@4       1009a0e0     kernel32:KERNEL32.dll
 0002:000000e4       __imp__DeleteFileW@4       1009a0e4     kernel32:KERNEL32.dll
 0002:000000e8       __imp__GetCurrentProcessId@0 1009a0e8     kernel32:KERNEL32.dll
 0002:000000ec       __imp__GetTempPathA@8      1009a0ec     kernel32:KERNEL32.dll
 0002:000000f0       __imp__LocalFree@4         1009a0f0     kernel32:KERNEL32.dll
 0002:000000f4       __imp__GetSystemTime@4     1009a0f4     kernel32:KERNEL32.dll
 0002:000000f8       __imp__AreFileApisANSI@0   1009a0f8     kernel32:KERNEL32.dll
 0002:000000fc       __imp__DeleteFileA@4       1009a0fc     kernel32:KERNEL32.dll
 0002:00000100       __imp__UnmapViewOfFile@4   1009a100     kernel32:KERNEL32.dll
 0002:00000104       __imp__MapViewOfFile@20    1009a104     kernel32:KERNEL32.dll
 0002:00000108       __imp__GetFullPathNameW@16 1009a108     kernel32:KERNEL32.dll
 0002:0000010c       __imp__SetFilePointer@16   1009a10c     kernel32:KERNEL32.dll
 0002:00000110       __imp__CreateMutexW@12     1009a110     kernel32:KERNEL32.dll
 0002:00000114       __imp__GetFileSize@8       1009a114     kernel32:KERNEL32.dll
 0002:00000118       __imp__CreateFileA@28      1009a118     kernel32:KERNEL32.dll
 0002:0000011c       __imp__HeapReAlloc@16      1009a11c     kernel32:KERNEL32.dll
 0002:00000120       __imp__GetFullPathNameA@16 1009a120     kernel32:KERNEL32.dll
 0002:00000124       __imp__ReadFile@20         1009a124     kernel32:KERNEL32.dll
 0002:00000128       __imp__GetCurrentThreadId@0 1009a128     kernel32:KERNEL32.dll
 0002:0000012c       __imp__DisableThreadLibraryCalls@4 1009a12c     kernel32:KERNEL32.dll
 0002:00000130       __imp__IsDebuggerPresent@0 1009a130     kernel32:KERNEL32.dll
 0002:00000134       __imp__SetUnhandledExceptionFilter@4 1009a134     kernel32:KERNEL32.dll
 0002:00000138       __imp__UnhandledExceptionFilter@4 1009a138     kernel32:KERNEL32.dll
 0002:0000013c       __imp__GetCurrentProcess@0 1009a13c     kernel32:KERNEL32.dll
 0002:00000140       __imp__TerminateProcess@8  1009a140     kernel32:KERNEL32.dll
 0002:00000144       __imp__InterlockedExchange@8 1009a144     kernel32:KERNEL32.dll
 0002:00000148       \177KERNEL32_NULL_THUNK_DATA 1009a148     kernel32:KERNEL32.dll
 0002:0000014c       __imp___errno              1009a14c     MSVCRT:MSVCR90.dll
 0002:00000150       __imp__tolower             1009a150     MSVCRT:MSVCR90.dll
 0002:00000154       __imp__strncpy             1009a154     MSVCRT:MSVCR90.dll
 0002:00000158       __imp__isalpha             1009a158     MSVCRT:MSVCR90.dll
 0002:0000015c       __imp__toupper             1009a15c     MSVCRT:MSVCR90.dll
 0002:00000160       __imp___encode_pointer     1009a160     MSVCRT:MSVCR90.dll
 0002:00000164       __imp___malloc_crt         1009a164     MSVCRT:MSVCR90.dll
 0002:00000168       __imp___encoded_null       1009a168     MSVCRT:MSVCR90.dll
 0002:0000016c       __imp___decode_pointer     1009a16c     MSVCRT:MSVCR90.dll
 0002:00000170       __imp___initterm           1009a170     MSVCRT:MSVCR90.dll
 0002:00000174       __imp___initterm_e         1009a174     MSVCRT:MSVCR90.dll
 0002:00000178       __imp___amsg_exit          1009a178     MSVCRT:MSVCR90.dll
 0002:0000017c       __imp___adjust_fdiv        1009a17c     MSVCRT:MSVCR90.dll
 0002:00000180       __imp____CppXcptFilter     1009a180     MSVCRT:MSVCR90.dll
 0002:00000184       __imp___crt_debugger_hook  1009a184     MSVCRT:MSVCR90.dll
 0002:00000188       __imp____clean_type_info_names_internal 1009a188     MSVCRT:MSVCR90.dll
 0002:0000018c       __imp___unlock             1009a18c     MSVCRT:MSVCR90.dll
 0002:00000190       __imp____dllonexit         1009a190     MSVCRT:MSVCR90.dll
 0002:00000194       __imp___lock               1009a194     MSVCRT:MSVCR90.dll
 0002:00000198       __imp___onexit             1009a198     MSVCRT:MSVCR90.dll
 0002:0000019c       __imp___except_handler4_common 1009a19c     MSVCRT:MSVCR90.dll
 0002:000001a0       __imp__strerror            1009a1a0     MSVCRT:MSVCR90.dll
 0002:000001a4       __imp___localtime64_s      1009a1a4     MSVCRT:MSVCR90.dll
 0002:000001a8       __imp__qsort               1009a1a8     MSVCRT:MSVCR90.dll
 0002:000001ac       __imp__calloc              1009a1ac     MSVCRT:MSVCR90.dll
 0002:000001b0       __imp__free                1009a1b0     MSVCRT:MSVCR90.dll
 0002:000001b4       __imp__ceil                1009a1b4     MSVCRT:MSVCR90.dll
 0002:000001b8       __imp__strncmp             1009a1b8     MSVCRT:MSVCR90.dll
 0002:000001bc       __imp__memmove             1009a1bc     MSVCRT:MSVCR90.dll
 0002:000001c0       __imp__memcpy              1009a1c0     MSVCRT:MSVCR90.dll
 0002:000001c4       __imp__memset              1009a1c4     MSVCRT:MSVCR90.dll
 0002:000001c8       __imp___CItanh             1009a1c8     MSVCRT:MSVCR90.dll
 0002:000001cc       __imp___CItan              1009a1cc     MSVCRT:MSVCR90.dll
 0002:000001d0       __imp___CIlog              1009a1d0     MSVCRT:MSVCR90.dll
 0002:000001d4       __imp___CIsqrt             1009a1d4     MSVCRT:MSVCR90.dll
 0002:000001d8       __imp__floor               1009a1d8     MSVCRT:MSVCR90.dll
 0002:000001dc       __imp___CIatan2            1009a1dc     MSVCRT:MSVCR90.dll
 0002:000001e0       __imp___CIpow              1009a1e0     MSVCRT:MSVCR90.dll
 0002:000001e4       __imp___CIexp              1009a1e4     MSVCRT:MSVCR90.dll
 0002:000001e8       __imp___CIlog10            1009a1e8     MSVCRT:MSVCR90.dll
 0002:000001ec       __imp___CIcosh             1009a1ec     MSVCRT:MSVCR90.dll
 0002:000001f0       __imp___CIsinh             1009a1f0     MSVCRT:MSVCR90.dll
 0002:000001f4       __imp___CIcos              1009a1f4     MSVCRT:MSVCR90.dll
 0002:000001f8       __imp___CIsin              1009a1f8     MSVCRT:MSVCR90.dll
 0002:000001fc       __imp___CIatan             1009a1fc     MSVCRT:MSVCR90.dll
 0002:00000200       __imp___CIasin             1009a200     MSVCRT:MSVCR90.dll
 0002:00000204       __imp___CIacos             1009a204     MSVCRT:MSVCR90.dll
 0002:00000208       \177MSVCR90_NULL_THUNK_DATA 1009a208     MSVCRT:MSVCR90.dll
 0002:0000020c       __imp___CorDllMain@12      1009a20c     mscoree:mscoree.dll
 0002:00000210       \177mscoree_NULL_THUNK_DATA 1009a210     mscoree:mscoree.dll
 0002:00000214       ___xc_a                    1009a214     MSVCRT:cinitexe.obj
 0002:00000218       ___xc_z                    1009a218     MSVCRT:cinitexe.obj
 0002:0000021c       ___xi_a                    1009a21c     MSVCRT:cinitexe.obj
 0002:00000228       ___xi_z                    1009a228     MSVCRT:cinitexe.obj
 0002:0000024c       __pRawDllMain              1009a24c     MSVCRT:crtdll.obj
 0002:0000024c       __pDefaultRawDllMain       1009a24c     MSVCRT:crtdll.obj
 0002:00000258       ??_C@_0P@GILEIKMI@upper_quartile?$AA@ 1009a258     interop.obj
 0002:00000268       ??_C@_0P@BHPBIMCK@lower_quartile?$AA@ 1009a268     interop.obj
 0002:00000278       ??_C@_06EIDMBNHH@median?$AA@ 1009a278     interop.obj
 0002:00000280       ??_C@_08PPLCFKON@variance?$AA@ 1009a280     interop.obj
 0002:0000028c       ??_C@_05EMOENAND@stdev?$AA@ 1009a28c     interop.obj
 0002:00000294       ??_C@_09GOCGDFFD@strfilter?$AA@ 1009a294     interop.obj
 0002:000002a0       ??_C@_04ECJLCDND@padc?$AA@ 1009a2a0     interop.obj
 0002:000002a8       ??_C@_04BBECAAMD@padr?$AA@ 1009a2a8     interop.obj
 0002:000002b0       ??_C@_04MFADDPBM@padl?$AA@ 1009a2b0     interop.obj
 0002:000002b8       ??_C@_06OLFJAONP@proper?$AA@ 1009a2b8     interop.obj
 0002:000002c0       ??_C@_07KOIEOCCE@reverse?$AA@ 1009a2c0     interop.obj
 0002:000002c8       ??_C@_08JJJINGEL@rightstr?$AA@ 1009a2c8     interop.obj
 0002:000002d4       ??_C@_07CBJDIIOC@leftstr?$AA@ 1009a2d4     interop.obj
 0002:000002dc       ??_C@_09LCOPGHLO@charindex?$AA@ 1009a2dc     interop.obj
 0002:000002e8       ??_C@_09CBPKCNMB@replicate?$AA@ 1009a2e8     interop.obj
 0002:000002f4       ??_C@_0BD@IFENDAKA@last_rows_affected?$AA@ 1009a2f4     interop.obj
 0002:00000308       ??_C@_02OAHAJOFD@pi?$AA@   1009a308     interop.obj
 0002:0000030c       ??_C@_05PBJFFIGL@floor?$AA@ 1009a30c     interop.obj
 0002:00000314       ??_C@_07EANFIDJB@ceiling?$AA@ 1009a314     interop.obj
 0002:0000031c       ??_C@_04GFPJNGEK@ceil?$AA@ 1009a31c     interop.obj
 0002:00000324       ??_C@_06ICDKOIFG@square?$AA@ 1009a324     interop.obj
 0002:0000032c       ??_C@_04EIAKFFMI@sqrt?$AA@ 1009a32c     interop.obj
 0002:00000334       ??_C@_04HHGHLBPI@sign?$AA@ 1009a334     interop.obj
 0002:0000033c       ??_C@_05PLIADJJL@power?$AA@ 1009a33c     interop.obj
 0002:00000344       ??_C@_05HGHHAHAP@log10?$AA@ 1009a344     interop.obj
 0002:0000034c       ??_C@_03KHJOGHMM@exp?$AA@  1009a34c     interop.obj
 0002:00000350       ??_C@_04HKNGMDAJ@coth?$AA@ 1009a350     interop.obj
 0002:00000358       ??_C@_04FJHINJAO@tanh?$AA@ 1009a358     interop.obj
 0002:00000360       ??_C@_04COOMCNPB@sinh?$AA@ 1009a360     interop.obj
 0002:00000368       ??_C@_04HPJJNFIM@cosh?$AA@ 1009a368     interop.obj
 0002:00000370       ??_C@_03PPPAEIOB@cot?$AA@  1009a370     interop.obj
 0002:00000374       ??_C@_03IIINPABG@tan?$AA@  1009a374     interop.obj
 0002:00000378       ??_C@_03BLEJJJBH@sin?$AA@  1009a378     interop.obj
 0002:0000037c       ??_C@_03LALBNOCG@cos?$AA@  1009a37c     interop.obj
 0002:00000380       ??_C@_07JLOPPFCD@radians?$AA@ 1009a380     interop.obj
 0002:00000388       ??_C@_07MHOHEFBH@degrees?$AA@ 1009a388     interop.obj
 0002:00000390       ??_C@_0L@CHCOIIBP@difference?$AA@ 1009a390     interop.obj
 0002:0000039c       ??_C@_05ONDAFDEP@atanh?$AA@ 1009a39c     interop.obj
 0002:000003a4       ??_C@_05JKKEKHLA@asinh?$AA@ 1009a3a4     interop.obj
 0002:000003ac       ??_C@_05MLNBFPMN@acosh?$AA@ 1009a3ac     interop.obj
 0002:000003b4       ??_C@_05KNGEOGJB@atan2?$AA@ 1009a3b4     interop.obj
 0002:000003bc       ??_C@_04NGOLNDIP@atn2?$AA@ 1009a3bc     interop.obj
 0002:000003c4       ??_C@_04MLLJIGOK@atan?$AA@ 1009a3c4     interop.obj
 0002:000003cc       ??_C@_04FIHNOPOL@asin?$AA@ 1009a3cc     interop.obj
 0002:000003d4       ??_C@_04PDIFKINK@acos?$AA@ 1009a3d4     interop.obj
 0002:000003dc       ??_C@_0CP@DMLOGJAI@DELETE?5FROM?5?8?$CFq?8?4?8?$CFq_parent?8?5WHE@ 1009a3dc     interop.obj
 0002:0000040c       ??_C@_0DH@IPNBEOMK@INSERT?5OR?5REPLACE?5INTO?5?8?$CFq?8?4?8?$CFq_@ 1009a40c     interop.obj
 0002:00000444       ??_C@_0DK@LBKGHCLI@SELECT?5parentnode?5FROM?5?8?$CFq?8?4?8?$CFq_@ 1009a444     interop.obj
 0002:00000480       ??_C@_0CN@JLLIJKKP@DELETE?5FROM?5?8?$CFq?8?4?8?$CFq_rowid?8?5WHER@ 1009a480     interop.obj
 0002:000004b0       ??_C@_0DG@OPBLMGLD@INSERT?5OR?5REPLACE?5INTO?5?8?$CFq?8?4?8?$CFq_@ 1009a4b0     interop.obj
 0002:000004e8       ??_C@_0DE@NMCAHMCK@SELECT?5nodeno?5FROM?5?8?$CFq?8?4?8?$CFq_rowi@ 1009a4e8     interop.obj
 0002:0000051c       ??_C@_0CN@NJAIPDIA@DELETE?5FROM?5?8?$CFq?8?4?8?$CFq_node?8?5WHERE@ 1009a51c     interop.obj
 0002:0000054c       ??_C@_0DF@HGBHOIBO@INSERT?5OR?5REPLACE?5INTO?5?8?$CFq?8?4?8?$CFq_@ 1009a54c     interop.obj
 0002:00000584       ??_C@_0DC@LADEDDNO@SELECT?5data?5FROM?5?8?$CFq?8?4?8?$CFq_node?8?5@ 1009a584     interop.obj
 0002:000005b8       ??_C@_04ILABJOOE@NEAR?$AA@ 1009a5b8     interop.obj
 0002:000005c0       ??_C@_03GBFNEA@NOT?$AA@    1009a5c0     interop.obj
 0002:000005c4       ??_C@_03BDACDFHA@AND?$AA@  1009a5c4     interop.obj
 0002:000005c8       ??_C@_02PDPFNDMG@OR?$AA@   1009a5c8     interop.obj
 0002:000005cc       ??_C@_0CB@FOEJOLMC@malformed?5MATCH?5expression?3?5?$FL?$CFs?$FN@ 1009a5cc     interop.obj
 0002:000005f0       ??_C@_03ODAOEF@rwc?$AA@    1009a5f0     interop.obj
 0002:000005f4       ??_C@_02DHLFHFOC@rw?$AA@   1009a5f4     interop.obj
 0002:000005f8       ??_C@_02LFKOONLL@ro?$AA@   1009a5f8     interop.obj
 0002:000005fc       ??_C@_07NMPLPEPB@private?$AA@ 1009a5fc     interop.obj
 0002:00000604       ??_C@_06HBFNPGIC@shared?$AA@ 1009a604     interop.obj
 0002:0000060c       ??_C@_0CH@JKOMOHHH@file?5is?5encrypted?5or?5is?5not?5a?5da@ 1009a60c     interop.obj
 0002:00000634       ??_C@_0CC@OHMKLHEA@bind?5or?5column?5index?5out?5of?5rang@ 1009a634     interop.obj
 0002:00000658       ??_C@_0CA@DBBJFBEG@auxiliary?5database?5format?5error?$AA@ 1009a658     interop.obj
 0002:00000678       ??_C@_0BF@LMCDAPDN@authorization?5denied?$AA@ 1009a678     interop.obj
 0002:00000690       ??_C@_0BP@GMDPJID@large?5file?5support?5is?5disabled?$AA@ 1009a690     interop.obj
 0002:000006b0       ??_C@_0CH@GCDGLLPA@library?5routine?5called?5out?5of?5se@ 1009a6b0     interop.obj
 0002:000006d8       ??_C@_0BC@FILINGOB@datatype?5mismatch?$AA@ 1009a6d8     interop.obj
 0002:000006ec       ??_C@_0BC@IFKPGMGK@constraint?5failed?$AA@ 1009a6ec     interop.obj
 0002:00000700       ??_C@_0BH@OCNELEJF@table?5contains?5no?5data?$AA@ 1009a700     interop.obj
 0002:00000718       ??_C@_0BB@MCPOJJBB@locking?5protocol?$AA@ 1009a718     interop.obj
 0002:0000072c       ??_C@_0BN@JLONMGIA@unable?5to?5open?5database?5file?$AA@ 1009a72c     interop.obj
 0002:0000074c       ??_C@_0BJ@GDNBBAEL@database?5or?5disk?5is?5full?$AA@ 1009a74c     interop.obj
 0002:00000768       ??_C@_0BC@BDMDPLFD@unknown?5operation?$AA@ 1009a768     interop.obj
 0002:0000077c       ??_C@_0CB@ONDDCPGK@database?5disk?5image?5is?5malformed@ 1009a77c     interop.obj
 0002:000007a0       ??_C@_0P@FOPPKBJH@disk?5I?1O?5error?$AA@ 1009a7a0     interop.obj
 0002:000007b0       ??_C@_0M@EGEKIIMP@interrupted?$AA@ 1009a7b0     interop.obj
 0002:000007bc       ??_C@_0CF@JBLJEMGC@attempt?5to?5write?5a?5readonly?5data@ 1009a7bc     interop.obj
 0002:000007e4       ??_C@_0BJ@DNPONIEG@database?5table?5is?5locked?$AA@ 1009a7e4     interop.obj
 0002:00000800       ??_C@_0BD@DAAAMHOI@database?5is?5locked?$AA@ 1009a800     interop.obj
 0002:00000814       ??_C@_0BP@BFMDEDKN@callback?5requested?5query?5abort?$AA@ 1009a814     interop.obj
 0002:00000834       ??_C@_0BJ@OFHFLJKH@access?5permission?5denied?$AA@ 1009a834     interop.obj
 0002:00000850       ??_C@_0CE@BCMAPMOL@SQL?5logic?5error?5or?5missing?5datab@ 1009a850     interop.obj
 0002:00000874       ??_C@_0N@FKKFHCIB@not?5an?5error?$AA@ 1009a874     interop.obj
 0002:00000884       ??_C@_06EENFNEPD@detail?$AA@ 1009a884     interop.obj
 0002:0000088c       ??_C@_05NDNMCCJH@order?$AA@ 1009a88c     interop.obj
 0002:00000894       ??_C@_08CAKEGGLM@selectid?$AA@ 1009a894     interop.obj
 0002:000008a0       ??_C@_07GJGNEJFD@comment?$AA@ 1009a8a0     interop.obj
 0002:000008a8       ??_C@_02PGHOIMAL@p5?$AA@   1009a8a8     interop.obj
 0002:000008ac       ??_C@_02OPGFLNEK@p4?$AA@   1009a8ac     interop.obj
 0002:000008b0       ??_C@_02KACECLIN@p3?$AA@   1009a8b0     interop.obj
 0002:000008b4       ??_C@_02LJDPBKMM@p2?$AA@   1009a8b4     interop.obj
 0002:000008b8       ??_C@_02JCBCEJAP@p1?$AA@   1009a8b8     interop.obj
 0002:000008bc       ??_C@_06POMMAHJK@opcode?$AA@ 1009a8bc     interop.obj
 0002:000008c4       ??_C@_04HLBMEOMD@addr?$AA@ 1009a8c4     interop.obj
 0002:000008cc       ??_C@_05MNCHLHCA@UTF16?$AA@ 1009a8cc     interop.obj
 0002:000008d4       ??_C@_06KNDPGIKI@UTF?916?$AA@ 1009a8d4     interop.obj
 0002:000008dc       ??_C@_07JDFIEPAG@UTF16be?$AA@ 1009a8dc     interop.obj
 0002:000008e4       ??_C@_07JJMGGCAM@UTF16le?$AA@ 1009a8e4     interop.obj
 0002:000008ec       ??_C@_08HGGOPCBI@UTF?916be?$AA@ 1009a8ec     interop.obj
 0002:000008f8       ??_C@_08HMPANPBC@UTF?916le?$AA@ 1009a8f8     interop.obj
 0002:00000904       ??_C@_05EGJIMALK@UTF?98?$AA@ 1009a904     interop.obj
 0002:0000090c       ??_C@_04OOMJJNCF@UTF8?$AA@ 1009a90c     interop.obj
 0002:00000914       ??_C@_03KIAODNHK@wal?$AA@  1009a914     interop.obj
 0002:00000918       ??_C@_08MABILMFG@truncate?$AA@ 1009a918     interop.obj
 0002:00000924       ??_C@_03MCADLMAF@off?$AA@  1009a924     interop.obj
 0002:00000928       ??_C@_07EMFBDGOD@persist?$AA@ 1009a928     interop.obj
 0002:00000930       ??_C@_06FOBLBEIN@delete?$AA@ 1009a930     interop.obj
 0002:00000938       ??_C@_0N@CEEMEAMB@foreign_keys?$AA@ 1009a938     interop.obj
 0002:00000948       ??_C@_0BD@IAMNLMFM@recursive_triggers?$AA@ 1009a948     interop.obj
 0002:0000095c       ??_C@_0BB@KLHJNGLH@read_uncommitted?$AA@ 1009a95c     interop.obj
 0002:00000970       ??_C@_0BA@OHBCLCAL@writable_schema?$AA@ 1009a970     interop.obj
 0002:00000980       ??_C@_0BJ@KLIMENGM@ignore_check_constraints?$AA@ 1009a980     interop.obj
 0002:0000099c       ??_C@_0BA@NMINPKHE@automatic_index?$AA@ 1009a99c     interop.obj
 0002:000009ac       ??_C@_0BK@ECMFJINF@reverse_unordered_selects?$AA@ 1009a9ac     interop.obj
 0002:000009c8       ??_C@_0BF@IOJNJBPA@checkpoint_fullfsync?$AA@ 1009a9c8     interop.obj
 0002:000009e0       ??_C@_09MLJLLBEB@fullfsync?$AA@ 1009a9e0     interop.obj
 0002:000009ec       ??_C@_0BD@LEFOEGBK@legacy_file_format?$AA@ 1009a9ec     interop.obj
 0002:00000a00       ??_C@_0BH@CMLDBHJP@empty_result_callbacks?$AA@ 1009aa00     interop.obj
 0002:00000a18       ??_C@_0O@PEBBJPHD@count_changes?$AA@ 1009aa18     interop.obj
 0002:00000a28       ??_C@_0BD@BFIEDLEP@short_column_names?$AA@ 1009aa28     interop.obj
 0002:00000a3c       ??_C@_0BC@CBBNFKC@full_column_names?$AA@ 1009aa3c     interop.obj
 0002:00000a50       ??_C@_0N@KKLIBDFO@group_concat?$AA@ 1009aa50     interop.obj
 0002:00000a60       ??_C@_05IOMEMJEC@count?$AA@ 1009aa60     interop.obj
 0002:00000a68       ??_C@_03CHOBFJAH@avg?$AA@  1009aa68     interop.obj
 0002:00000a6c       ??_C@_05KBOMEDGA@total?$AA@ 1009aa6c     interop.obj
 0002:00000a74       ??_C@_03CFFIJAMA@sum?$AA@  1009aa74     interop.obj
 0002:00000a78       ??_C@_0P@BJKPICNH@load_extension?$AA@ 1009aa78     interop.obj
 0002:00000a88       ??_C@_07KFKPEFNG@soundex?$AA@ 1009aa88     interop.obj
 0002:00000a90       ??_C@_08OAGHJJOG@zeroblob?$AA@ 1009aa90     interop.obj
 0002:00000a9c       ??_C@_07CLEHDIEJ@replace?$AA@ 1009aa9c     interop.obj
 0002:00000aa4       ??_C@_0O@MLEKHAGK@total_changes?$AA@ 1009aaa4     interop.obj
 0002:00000ab4       ??_C@_07HFLFHMNL@changes?$AA@ 1009aab4     interop.obj
 0002:00000abc       ??_C@_0BC@EKKKCJJE@last_insert_rowid?$AA@ 1009aabc     interop.obj
 0002:00000ad0       ??_C@_05JHEGFHLM@quote?$AA@ 1009aad0     interop.obj
 0002:00000ad8       ??_C@_0BJ@BHKPGCCL@sqlite_compileoption_get?$AA@ 1009aad8     interop.obj
 0002:00000af4       ??_C@_0BK@NPIMPNGH@sqlite_compileoption_used?$AA@ 1009aaf4     interop.obj
 0002:00000b10       ??_C@_0L@HNFKFGGK@sqlite_log?$AA@ 1009ab10     interop.obj
 0002:00000b1c       ??_C@_0BB@HPCCOLJC@sqlite_source_id?$AA@ 1009ab1c     interop.obj
 0002:00000b30       ??_C@_0P@IPDPEBN@sqlite_version?$AA@ 1009ab30     interop.obj
 0002:00000b40       ??_C@_06LLGGGFDC@nullif?$AA@ 1009ab40     interop.obj
 0002:00000b48       ??_C@_0L@IDMFPHDO@randomblob?$AA@ 1009ab48     interop.obj
 0002:00000b54       ??_C@_06NLFCANPD@random?$AA@ 1009ab54     interop.obj
 0002:00000b5c       ??_C@_06FAHGEKJN@ifnull?$AA@ 1009ab5c     interop.obj
 0002:00000b64       ??_C@_03IJNDAFDK@hex?$AA@  1009ab64     interop.obj
 0002:00000b68       ??_C@_08FNGHHBID@coalesce?$AA@ 1009ab68     interop.obj
 0002:00000b74       ??_C@_05IPJEPLHL@lower?$AA@ 1009ab74     interop.obj
 0002:00000b7c       ??_C@_05NECKJAMC@upper?$AA@ 1009ab7c     interop.obj
 0002:00000b84       ??_C@_05MIMAKCN@round?$AA@ 1009ab84     interop.obj
 0002:00000b8c       ??_C@_03BCGAIFPO@abs?$AA@  1009ab8c     interop.obj
 0002:00000b90       ??_C@_06DAHFIGOC@substr?$AA@ 1009ab90     interop.obj
 0002:00000b98       ??_C@_06IJDLPEM@length?$AA@ 1009ab98     interop.obj
 0002:00000ba0       ??_C@_06NDJPCPHC@typeof?$AA@ 1009aba0     interop.obj
 0002:00000ba8       ??_C@_03LJAEFNNE@max?$AA@  1009aba8     interop.obj
 0002:00000bac       ??_C@_03KLIPLJLL@min?$AA@  1009abac     interop.obj
 0002:00000bb0       ??_C@_04GDOMMDLP@trim?$AA@ 1009abb0     interop.obj
 0002:00000bb8       ??_C@_05FCOGDJML@rtrim?$AA@ 1009abb8     interop.obj
 0002:00000bc0       ??_C@_05GLDKFKCA@ltrim?$AA@ 1009abc0     interop.obj
 0002:00000bc8       ??_C@_07LDDIIHCM@RELEASE?$AA@ 1009abc8     interop.obj
 0002:00000bd0       ??_C@_05IKBMIIDA@?5REAL?$AA@ 1009abd0     interop.obj
 0002:00000bd8       ??_C@_04LKNDAIML@?5INT?$AA@ 1009abd8     interop.obj
 0002:00000be0       ??_C@_04KMHHNFPL@?5NUM?$AA@ 1009abe0     interop.obj
 0002:00000be8       ??_C@_05JELAHNDG@?5TEXT?$AA@ 1009abe8     interop.obj
 0002:00000bf0       ??_C@_0O@GJLGHGMJ@sqlite_attach?$AA@ 1009abf0     interop.obj
 0002:00000c00       ??_C@_0O@PDAEIIFA@sqlite_detach?$AA@ 1009ac00     interop.obj
 0002:00000c10       ??_C@_09DDDBDIEM@stat3_get?$AA@ 1009ac10     interop.obj
 0002:00000c1c       ??_C@_0L@FFOLNHKE@stat3_push?$AA@ 1009ac1c     interop.obj
 0002:00000c28       ??_C@_0L@EIMFIJDC@stat3_init?$AA@ 1009ac28     interop.obj
 0002:00000c34       ??_C@_0BM@EJONBLKK@tbl?0idx?0neq?0nlt?0ndlt?0sample?$AA@ 1009ac34     interop.obj
 0002:00000c50       ??_C@_0N@HKFCOGAL@sqlite_stat3?$AA@ 1009ac50     interop.obj
 0002:00000c60       ??_C@_0N@BCOBMINH@tbl?0idx?0stat?$AA@ 1009ac60     interop.obj
 0002:00000c70       ??_C@_0N@EIGEIEIJ@sqlite_stat1?$AA@ 1009ac70     interop.obj
 0002:00000c80       ??_C@_0BF@CIKMGNA@sqlite_rename_parent?$AA@ 1009ac80     interop.obj
 0002:00000c98       ??_C@_0BG@DKJJOMDK@sqlite_rename_trigger?$AA@ 1009ac98     interop.obj
 0002:00000cb0       ??_C@_0BE@JHJAJICL@sqlite_rename_table?$AA@ 1009acb0     interop.obj
 0002:00000cc4       ??_C@_0BJ@EKFPCGJA@CreateFileMappingFromApp?$AA@ 1009acc4     interop.obj
 0002:00000ce0       ??_C@_0P@BOLOPLNF@GetProcessHeap?$AA@ 1009ace0     interop.obj
 0002:00000cf0       ??_C@_0BD@JHPCPJIF@OutputDebugStringW?$AA@ 1009acf0     interop.obj
 0002:00000d04       ??_C@_0BD@ILGKEMFC@OutputDebugStringA?$AA@ 1009ad04     interop.obj
 0002:00000d18       ??_C@_0BE@HLKFLAJF@GetNativeSystemInfo?$AA@ 1009ad18     interop.obj
 0002:00000d2c       ??_C@_0P@CDHHOHKP@GetTickCount64?$AA@ 1009ad2c     interop.obj
 0002:00000d3c       ??_C@_0BE@GMOAPDKA@LoadPackagedLibrary?$AA@ 1009ad3c     interop.obj
 0002:00000d50       ??_C@_0M@HHGEPIBF@CreateFile2?$AA@ 1009ad50     interop.obj
 0002:00000d5c       ??_C@_0BF@ECJCKDGL@MapViewOfFileFromApp?$AA@ 1009ad5c     interop.obj
 0002:00000d74       ??_C@_0BN@NEEHBBPO@GetFileInformationByHandleEx?$AA@ 1009ad74     interop.obj
 0002:00000d94       ??_C@_0BB@GDGABGCO@SetFilePointerEx?$AA@ 1009ad94     interop.obj
 0002:00000da8       ??_C@_0BG@IFNJHLEG@WaitForSingleObjectEx?$AA@ 1009ada8     interop.obj
 0002:00000dc0       ??_C@_0BE@CLKLPNNG@WaitForSingleObject?$AA@ 1009adc0     interop.obj
 0002:00000dd4       ??_C@_0P@DLHPPCNH@CreateEventExW?$AA@ 1009add4     interop.obj
 0002:00000de4       ??_C@_09NOIIIIGM@WriteFile?$AA@ 1009ade4     interop.obj
 0002:00000df0       ??_C@_0BE@LJADKLBD@WideCharToMultiByte?$AA@ 1009adf0     interop.obj
 0002:00000e04       ??_C@_0BA@GLKNLELN@UnmapViewOfFile?$AA@ 1009ae04     interop.obj
 0002:00000e14       ??_C@_0N@HOKNOHPO@UnlockFileEx?$AA@ 1009ae14     interop.obj
 0002:00000e24       ??_C@_0L@PBJENKDG@UnlockFile?$AA@ 1009ae24     interop.obj
 0002:00000e30       ??_C@_0BF@HBHGIPOG@SystemTimeToFileTime?$AA@ 1009ae30     interop.obj
 0002:00000e48       ??_C@_05PFDOMJEF@Sleep?$AA@ 1009ae48     interop.obj
 0002:00000e50       ??_C@_0P@HKHKGCLN@SetFilePointer?$AA@ 1009ae50     interop.obj
 0002:00000e60       ??_C@_0N@KGGGLBCJ@SetEndOfFile?$AA@ 1009ae60     interop.obj
 0002:00000e70       ??_C@_08KLCHJOKF@ReadFile?$AA@ 1009ae70     interop.obj
 0002:00000e7c       ??_C@_0BI@LFICGGHO@QueryPerformanceCounter?$AA@ 1009ae7c     interop.obj
 0002:00000e94       ??_C@_0BE@HCIKGJGE@MultiByteToWideChar?$AA@ 1009ae94     interop.obj
 0002:00000ea8       ??_C@_0O@IGIELGBD@MapViewOfFile?$AA@ 1009aea8     interop.obj
 0002:00000eb8       ??_C@_0L@EJAEKEDD@LockFileEx?$AA@ 1009aeb8     interop.obj
 0002:00000ec4       ??_C@_08DICMLIHC@LockFile?$AA@ 1009aec4     interop.obj
 0002:00000ed0       ??_C@_09FHKJECCN@LocalFree?$AA@ 1009aed0     interop.obj
 0002:00000edc       ??_C@_0N@KCFDJLIF@LoadLibraryW?$AA@ 1009aedc     interop.obj
 0002:00000eec       ??_C@_0N@LOMLCOFC@LoadLibraryA?$AA@ 1009aeec     interop.obj
 0002:00000efc       ??_C@_0N@BKFJNCJM@HeapValidate?$AA@ 1009aefc     interop.obj
 0002:00000f0c       ??_C@_08LKCFNBPH@HeapSize?$AA@ 1009af0c     interop.obj
 0002:00000f18       ??_C@_0M@HHKAEGMB@HeapReAlloc?$AA@ 1009af18     interop.obj
 0002:00000f24       ??_C@_08ICEHPNNG@HeapFree?$AA@ 1009af24     interop.obj
 0002:00000f30       ??_C@_0M@NELNNOPP@HeapDestroy?$AA@ 1009af30     interop.obj
 0002:00000f3c       ??_C@_0L@ICEGIJOB@HeapCreate?$AA@ 1009af3c     interop.obj
 0002:00000f48       ??_C@_09JDKINLHP@HeapAlloc?$AA@ 1009af48     interop.obj
 0002:00000f54       ??_C@_0O@LLCLDPIK@GetVersionExA?$AA@ 1009af54     interop.obj
 0002:00000f64       ??_C@_0N@JOMACIEF@GetTickCount?$AA@ 1009af64     interop.obj
 0002:00000f74       ??_C@_0N@DAENKDLF@GetTempPathW?$AA@ 1009af74     interop.obj
 0002:00000f84       ??_C@_0N@CMNFBGGC@GetTempPathA?$AA@ 1009af84     interop.obj
 0002:00000f94       ??_C@_0BI@ENMDHCMK@GetSystemTimeAsFileTime?$AA@ 1009af94     interop.obj
 0002:00000fac       ??_C@_0O@IKEIBEBH@GetSystemTime?$AA@ 1009afac     interop.obj
 0002:00000fbc       ??_C@_0O@HJFFHIPG@GetSystemInfo?$AA@ 1009afbc     interop.obj
 0002:00000fcc       ??_C@_0BA@EJGIKKLP@GetProcAddressA?$AA@ 1009afcc     interop.obj
 0002:00000fdc       ??_C@_0N@HICKNDGL@GetLastError?$AA@ 1009afdc     interop.obj
 0002:00000fec       ??_C@_0BB@GMCPPICF@GetFullPathNameW?$AA@ 1009afec     interop.obj
 0002:00001000       ??_C@_0BB@HALHENPC@GetFullPathNameA?$AA@ 1009b000     interop.obj
 0002:00001014       ??_C@_0M@BAICHOOE@GetFileSize?$AA@ 1009b014     interop.obj
 0002:00001020       ??_C@_0BF@JODNCFOA@GetFileAttributesExW?$AA@ 1009b020     interop.obj
 0002:00001038       ??_C@_0BD@CFFEJJPG@GetFileAttributesW?$AA@ 1009b038     interop.obj
 0002:0000104c       ??_C@_0BD@DJMMCMCB@GetFileAttributesA?$AA@ 1009b04c     interop.obj
 0002:00001060       ??_C@_0BC@BOCPGOAP@GetDiskFreeSpaceW?$AA@ 1009b060     interop.obj
 0002:00001074       ??_C@_0BC@CLHNLNI@GetDiskFreeSpaceA?$AA@ 1009b074     interop.obj
 0002:00001088       ??_C@_0BE@BEODBHKD@GetCurrentProcessId?$AA@ 1009b088     interop.obj
 0002:0000109c       ??_C@_0M@FACAOGOA@FreeLibrary?$AA@ 1009b09c     interop.obj
 0002:000010a8       ??_C@_0P@EGGMAMDC@FormatMessageW?$AA@ 1009b0a8     interop.obj
 0002:000010b8       ??_C@_0P@FKPELJOF@FormatMessageA?$AA@ 1009b0b8     interop.obj
 0002:000010c8       ??_C@_0BB@MOGECGEP@FlushFileBuffers?$AA@ 1009b0c8     interop.obj
 0002:000010dc       ??_C@_0BF@KPJNHALE@FileTimeToSystemTime?$AA@ 1009b0dc     interop.obj
 0002:000010f4       ??_C@_0BI@EKFDIGHI@FileTimeToLocalFileTime?$AA@ 1009b0f4     interop.obj
 0002:0000110c       ??_C@_0M@DNECCFPG@DeleteFileW?$AA@ 1009b10c     interop.obj
 0002:00001118       ??_C@_0M@CBNKJACB@DeleteFileA?$AA@ 1009b118     interop.obj
 0002:00001124       ??_C@_0N@MDNOAJMP@CreateMutexW?$AA@ 1009b124     interop.obj
 0002:00001134       ??_C@_0BD@HFNFJDEE@CreateFileMappingW?$AA@ 1009b134     interop.obj
 0002:00001148       ??_C@_0M@GPOOGHPH@CreateFileW?$AA@ 1009b148     interop.obj
 0002:00001154       ??_C@_0M@HDHGNCCA@CreateFileA?$AA@ 1009b154     interop.obj
 0002:00001160       ??_C@_0M@JHJNLFGC@CloseHandle?$AA@ 1009b160     interop.obj
 0002:0000116c       ??_C@_0L@JBOFCNPB@CharUpperW?$AA@ 1009b16c     interop.obj
 0002:00001178       ??_C@_0L@CDADJILC@CharLowerW?$AA@ 1009b178     interop.obj
 0002:00001184       ??_C@_0BA@FHFNEAED@AreFileApisANSI?$AA@ 1009b184     interop.obj
 0002:00001194       ??_C@_07EMCFMDDO@Explain?$AA@ 1009b194     interop.obj
 0002:0000119c       ??_C@_04NBOPPMHE@Noop?$AA@ 1009b19c     interop.obj
 0002:000011a4       ??_C@_05ILLBNNOP@Trace?$AA@ 1009b1a4     interop.obj
 0002:000011ac       ??_C@_08PCPIJAPH@MaxPgcnt?$AA@ 1009b1ac     interop.obj
 0002:000011b8       ??_C@_09CNCANJNI@Pagecount?$AA@ 1009b1b8     interop.obj
 0002:000011c4       ??_C@_06ICNNEOIM@ToReal?$AA@ 1009b1c4     interop.obj
 0002:000011cc       ??_C@_05CNEGLJEO@ToInt?$AA@ 1009b1cc     interop.obj
 0002:000011d4       ??_C@_09IAEPJEPI@ToNumeric?$AA@ 1009b1d4     interop.obj
 0002:000011e0       ??_C@_06LCIJGAA@ToBlob?$AA@ 1009b1e0     interop.obj
 0002:000011e8       ??_C@_06JMHBLLIK@ToText?$AA@ 1009b1e8     interop.obj
 0002:000011f0       ??_C@_07NHABAPID@VUpdate?$AA@ 1009b1f0     interop.obj
 0002:000011f8       ??_C@_07BIPKCCHL@VRename?$AA@ 1009b1f8     interop.obj
 0002:00001200       ??_C@_05GOGANBLF@VNext?$AA@ 1009b200     interop.obj
 0002:00001208       ??_C@_07DOIHNMAE@VColumn?$AA@ 1009b208     interop.obj
 0002:00001210       ??_C@_07OKDOHLDO@VFilter?$AA@ 1009b210     interop.obj
 0002:00001218       ??_C@_05JABEJFFA@VOpen?$AA@ 1009b218     interop.obj
 0002:00001220       ??_C@_08JBEDGDCN@VDestroy?$AA@ 1009b220     interop.obj
 0002:0000122c       ??_C@_07KDKHCOMM@VCreate?$AA@ 1009b22c     interop.obj
 0002:00001234       ??_C@_06CLFNNGGK@VBegin?$AA@ 1009b234     interop.obj
 0002:0000123c       ??_C@_09FDKNKOOK@TableLock?$AA@ 1009b23c     interop.obj
 0002:00001248       ??_C@_04PHKLBGME@Real?$AA@ 1009b248     interop.obj
 0002:00001250       ??_C@_06GDNCIOGJ@Expire?$AA@ 1009b250     interop.obj
 0002:00001258       ??_C@_0L@POHPJECG@IncrVacuum?$AA@ 1009b258     interop.obj
 0002:00001264       ??_C@_06OBCEMCJB@Vacuum?$AA@ 1009b264     interop.obj
 0002:0000126c       ??_C@_0M@FAIDBMDK@JournalMode?$AA@ 1009b26c     interop.obj
 0002:00001278       ??_C@_0L@IHLHABNJ@Checkpoint?$AA@ 1009b278     interop.obj
 0002:00001284       ??_C@_08FCKHNOBN@AggFinal?$AA@ 1009b284     interop.obj
 0002:00001290       ??_C@_07NOMHFNIB@AggStep?$AA@ 1009b290     interop.obj
 0002:00001298       ??_C@_06KGOGOHGB@IfZero?$AA@ 1009b298     interop.obj
 0002:000012a0       ??_C@_05GPHDFMLA@IfNeg?$AA@ 1009b2a0     interop.obj
 0002:000012a8       ??_C@_05PMIMCOJP@IfPos?$AA@ 1009b2a8     interop.obj
 0002:000012b0       ??_C@_06LJFJMLCE@MemMax?$AA@ 1009b2b0     interop.obj
 0002:000012b8       ??_C@_08PNIKOKNB@FkIfZero?$AA@ 1009b2b8     interop.obj
 0002:000012c4       ??_C@_09EBKOHGDP@FkCounter?$AA@ 1009b2c4     interop.obj
 0002:000012d0       ??_C@_05LOJBNELM@Param?$AA@ 1009b2d0     interop.obj
 0002:000012d8       ??_C@_07DOMMNIGK@Program?$AA@ 1009b2d8     interop.obj
 0002:000012e0       ??_C@_0L@EOJPAHGG@RowSetTest?$AA@ 1009b2e0     interop.obj
 0002:000012ec       ??_C@_0L@JELPJHIJ@RowSetRead?$AA@ 1009b2ec     interop.obj
 0002:000012f8       ??_C@_09KPGKMOML@RowSetAdd?$AA@ 1009b2f8     interop.obj
 0002:00001304       ??_C@_0M@KCIGPGBI@IntegrityCk?$AA@ 1009b304     interop.obj
 0002:00001310       ??_C@_0M@JKNINGPB@DropTrigger?$AA@ 1009b310     interop.obj
 0002:0000131c       ??_C@_09KDDJLBNF@DropIndex?$AA@ 1009b31c     interop.obj
 0002:00001328       ??_C@_09ELPHDPAO@DropTable?$AA@ 1009b328     interop.obj
 0002:00001334       ??_C@_0N@FEAPPFEN@LoadAnalysis?$AA@ 1009b334     interop.obj
 0002:00001344       ??_C@_0M@IPJMJJPI@ParseSchema?$AA@ 1009b344     interop.obj
 0002:00001350       ??_C@_0M@BDPOJHGL@CreateTable?$AA@ 1009b350     interop.obj
 0002:0000135c       ??_C@_0M@PLDABJLA@CreateIndex?$AA@ 1009b35c     interop.obj
 0002:00001368       ??_C@_05MDNHABIA@Clear?$AA@ 1009b368     interop.obj
 0002:00001370       ??_C@_07BDCAJABG@Destroy?$AA@ 1009b370     interop.obj
 0002:00001378       ??_C@_05FMIIHMAD@IdxGE?$AA@ 1009b378     interop.obj
 0002:00001380       ??_C@_05DAELAPC@IdxLT?$AA@ 1009b380     interop.obj
 0002:00001388       ??_C@_08KLKOBEJ@IdxRowid?$AA@ 1009b388     interop.obj
 0002:00001394       ??_C@_09PDNFOMPO@IdxDelete?$AA@ 1009b394     interop.obj
 0002:000013a0       ??_C@_09ENCBCCAM@IdxInsert?$AA@ 1009b3a0     interop.obj
 0002:000013ac       ??_C@_0N@PCKBEOAP@SorterInsert?$AA@ 1009b3ac     interop.obj
 0002:000013bc       ??_C@_04MDFHGMOB@Next?$AA@ 1009b3bc     interop.obj
 0002:000013c4       ??_C@_07KGFHIBD@String8?$AA@ 1009b3c4     interop.obj
 0002:000013cc       ??_C@_06OBLNEDKN@BitNot?$AA@ 1009b3cc     interop.obj
 0002:000013d4       ??_C@_04PHIBHIIF@Prev?$AA@ 1009b3d4     interop.obj
 0002:000013dc       ??_C@_06ODAFHOMO@Concat?$AA@ 1009b3dc     interop.obj
 0002:000013e4       ??_C@_09DPOHBCHJ@Remainder?$AA@ 1009b3e4     interop.obj
 0002:000013f0       ??_C@_06JKMEHOIB@Divide?$AA@ 1009b3f0     interop.obj
 0002:000013f8       ??_C@_08EOBDLMOI@Multiply?$AA@ 1009b3f8     interop.obj
 0002:00001404       ??_C@_08DLEJPBEP@Subtract?$AA@ 1009b404     interop.obj
 0002:00001410       ??_C@_03LDFMNCOE@Add?$AA@  1009b410     interop.obj
 0002:00001414       ??_C@_0L@DHHFIOFJ@ShiftRight?$AA@ 1009b414     interop.obj
 0002:00001420       ??_C@_09IIGOLNPP@ShiftLeft?$AA@ 1009b420     interop.obj
 0002:0000142c       ??_C@_05BKBNAGEF@BitOr?$AA@ 1009b42c     interop.obj
 0002:00001434       ??_C@_06PCNOCLJN@BitAnd?$AA@ 1009b434     interop.obj
 0002:0000143c       ??_C@_0L@MGGJHFHJ@SorterNext?$AA@ 1009b43c     interop.obj
 0002:00001448       ??_C@_02GNOBCCEK@Ge?$AA@   1009b448     interop.obj
 0002:0000144c       ??_C@_02DCGNOOLL@Lt?$AA@   1009b44c     interop.obj
 0002:00001450       ??_C@_02GBLEMNKL@Le?$AA@   1009b450     interop.obj
 0002:00001454       ??_C@_02DODIABFK@Gt?$AA@   1009b454     interop.obj
 0002:00001458       ??_C@_02EAMLCBHB@Eq?$AA@   1009b458     interop.obj
 0002:0000145c       ??_C@_02GCDABJMF@Ne?$AA@   1009b45c     interop.obj
 0002:00001460       ??_C@_07HICACDPL@NotNull?$AA@ 1009b460     interop.obj
 0002:00001468       ??_C@_06NBBMPCN@IsNull?$AA@ 1009b468     interop.obj
 0002:00001470       ??_C@_06MAOEIKCJ@Rewind?$AA@ 1009b470     interop.obj
 0002:00001478       ??_C@_04DJANFKGA@Sort?$AA@ 1009b478     interop.obj
 0002:00001480       ??_C@_0L@DMDDEDPI@SorterSort?$AA@ 1009b480     interop.obj
 0002:0000148c       ??_C@_03LOMLFHDC@And?$AA@  1009b48c     interop.obj
 0002:00001490       ??_C@_02GGHBPHGE@Or?$AA@   1009b490     interop.obj
 0002:00001494       ??_C@_04DKKAEHDH@Last?$AA@ 1009b494     interop.obj
 0002:0000149c       ??_C@_07HJJPPOKN@NullRow?$AA@ 1009b49c     interop.obj
 0002:000014a4       ??_C@_05KEGGNBBF@Rowid?$AA@ 1009b4a4     interop.obj
 0002:000014ac       ??_C@_07OHPACBNN@RowData?$AA@ 1009b4ac     interop.obj
 0002:000014b4       ??_C@_06JIHNENAH@RowKey?$AA@ 1009b4b4     interop.obj
 0002:000014bc       ??_C@_0L@DNBEOFPP@SorterData?$AA@ 1009b4bc     interop.obj
 0002:000014c8       ??_C@_0O@GIINMLJL@SorterCompare?$AA@ 1009b4c8     interop.obj
 0002:000014d8       ??_C@_0L@NDDNCBN@ResetCount?$AA@ 1009b4d8     interop.obj
 0002:000014e4       ??_C@_06JBKGCNBB@Delete?$AA@ 1009b4e4     interop.obj
 0002:000014ec       ??_C@_09LEJELDEO@InsertInt?$AA@ 1009b4ec     interop.obj
 0002:000014f8       ??_C@_06CPFCODOD@Insert?$AA@ 1009b4f8     interop.obj
 0002:00001500       ??_C@_08FEDJPMPH@NewRowid?$AA@ 1009b500     interop.obj
 0002:0000150c       ??_C@_08DOCONEG@Sequence?$AA@ 1009b50c     interop.obj
 0002:00001518       ??_C@_09HMMGFEAA@NotExists?$AA@ 1009b518     interop.obj
 0002:00001524       ??_C@_08HBKIHNI@IsUnique?$AA@ 1009b524     interop.obj
 0002:00001530       ??_C@_05JDGHEPJG@Found?$AA@ 1009b530     interop.obj
 0002:00001538       ??_C@_08MDBAGECB@NotFound?$AA@ 1009b538     interop.obj
 0002:00001544       ??_C@_04ICIDABGP@Seek?$AA@ 1009b544     interop.obj
 0002:0000154c       ??_C@_06KLOEOCMK@SeekGt?$AA@ 1009b54c     interop.obj
 0002:00001554       ??_C@_06PIDNMBNK@SeekGe?$AA@ 1009b554     interop.obj
 0002:0000155c       ??_C@_06PEGICODL@SeekLe?$AA@ 1009b55c     interop.obj
 0002:00001564       ??_C@_06KHLBANCL@SeekLt?$AA@ 1009b564     interop.obj
 0002:0000156c       ??_C@_05LGELBCGM@Close?$AA@ 1009b56c     interop.obj
 0002:00001574       ??_C@_0L@PKPPHKBP@OpenPseudo?$AA@ 1009b574     interop.obj
 0002:00001580       ??_C@_0L@DIBNDBJM@SorterOpen?$AA@ 1009b580     interop.obj
 0002:0000158c       ??_C@_0O@MHKNMBPC@OpenEphemeral?$AA@ 1009b58c     interop.obj
 0002:0000159c       ??_C@_0O@LLCBFLCA@OpenAutoindex?$AA@ 1009b59c     interop.obj
 0002:000015ac       ??_C@_09FPCAPNBB@OpenWrite?$AA@ 1009b5ac     interop.obj
 0002:000015b8       ??_C@_08FJFCCPFB@OpenRead?$AA@ 1009b5b8     interop.obj
 0002:000015c4       ??_C@_0N@NKEHNBGM@VerifyCookie?$AA@ 1009b5c4     interop.obj
 0002:000015d4       ??_C@_09FEDANMPL@SetCookie?$AA@ 1009b5d4     interop.obj
 0002:000015e0       ??_C@_0L@LIFFPDNM@ReadCookie?$AA@ 1009b5e0     interop.obj
 0002:000015ec       ??_C@_0M@MEGKBOMN@Transaction?$AA@ 1009b5ec     interop.obj
 0002:000015f8       ??_C@_0L@BPKAOEDK@AutoCommit?$AA@ 1009b5f8     interop.obj
 0002:00001604       ??_C@_09OJILMLHM@Savepoint?$AA@ 1009b604     interop.obj
 0002:00001610       ??_C@_05IJGIMMHE@Count?$AA@ 1009b610     interop.obj
 0002:00001618       ??_C@_0L@PGPMFKDB@MakeRecord?$AA@ 1009b618     interop.obj
 0002:00001624       ??_C@_08MMCPABPC@Affinity?$AA@ 1009b624     interop.obj
 0002:00001630       ??_C@_06FFIACGFC@Column?$AA@ 1009b630     interop.obj
 0002:00001638       ??_C@_05DALJIPE@IfNot?$AA@ 1009b638     interop.obj
 0002:00001640       ??_C@_02EMFCFMID@If?$AA@   1009b640     interop.obj
 0002:00001644       ??_C@_04GKJMKNNB@Once?$AA@ 1009b644     interop.obj
 0002:0000164c       ??_C@_04BIEPDJCB@Jump?$AA@ 1009b64c     interop.obj
 0002:00001654       ??_C@_07MBOMJGGF@Compare?$AA@ 1009b654     interop.obj
 0002:0000165c       ??_C@_0M@LPEOJDB@Permutation?$AA@ 1009b65c     interop.obj
 0002:00001668       ??_C@_0N@KGPEGHPK@RealAffinity?$AA@ 1009b668     interop.obj
 0002:00001678       ??_C@_09LLJOBHN@MustBeInt?$AA@ 1009b678     interop.obj
 0002:00001684       ??_C@_06JHIJIKD@AddImm?$AA@ 1009b684     interop.obj
 0002:0000168c       ??_C@_03KNKIDPAC@Not?$AA@  1009b68c     interop.obj
 0002:00001690       ??_C@_08PHKOHANG@Function?$AA@ 1009b690     interop.obj
 0002:0000169c       ??_C@_07MCEFGNMJ@CollSeq?$AA@ 1009b69c     interop.obj
 0002:000016a4       ??_C@_09BKHKEBMD@ResultRow?$AA@ 1009b6a4     interop.obj
 0002:000016b0       ??_C@_05BCDNELCG@SCopy?$AA@ 1009b6b0     interop.obj
 0002:000016b8       ??_C@_04OPMHGHMB@Copy?$AA@ 1009b6b8     interop.obj
 0002:000016c0       ??_C@_04LCANPIEP@Move?$AA@ 1009b6c0     interop.obj
 0002:000016c8       ??_C@_08DMMJCAML@Variable?$AA@ 1009b6c8     interop.obj
 0002:000016d4       ??_C@_04HOFOMOEI@Blob?$AA@ 1009b6d4     interop.obj
 0002:000016dc       ??_C@_04KHKKIIL@Null?$AA@  1009b6dc     interop.obj
 0002:000016e4       ??_C@_06ENNEIMBA@String?$AA@ 1009b6e4     interop.obj
 0002:000016ec       ??_C@_05DPPJJBMK@Int64?$AA@ 1009b6ec     interop.obj
 0002:000016f4       ??_C@_07EDADKEAH@Integer?$AA@ 1009b6f4     interop.obj
 0002:000016fc       ??_C@_04NIFKAFLK@Halt?$AA@ 1009b6fc     interop.obj
 0002:00001704       ??_C@_0L@GIACEIKJ@HaltIfNull?$AA@ 1009b704     interop.obj
 0002:00001710       ??_C@_05LNDKIJIJ@Yield?$AA@ 1009b710     interop.obj
 0002:00001718       ??_C@_06HCFIKKEA@Return?$AA@ 1009b718     interop.obj
 0002:00001720       ??_C@_05DLHJCIPI@Gosub?$AA@ 1009b720     interop.obj
 0002:00001728       ??_C@_04BNGNMAK@Goto?$AA@  1009b728     interop.obj
 0002:00001730       ??_C@_01OGPIMHDM@?$DP?$AA@ 1009b730     interop.obj
 0002:00001734       ??_C@_0N@DJJJGBGD@current_date?$AA@ 1009b734     interop.obj
 0002:00001744       ??_C@_0BC@DDICBCEN@current_timestamp?$AA@ 1009b744     interop.obj
 0002:00001758       ??_C@_0N@IPDKEGPB@current_time?$AA@ 1009b758     interop.obj
 0002:00001768       ??_C@_08EPGBJPHJ@strftime?$AA@ 1009b768     interop.obj
 0002:00001774       ??_C@_08FGNPMIBK@datetime?$AA@ 1009b774     interop.obj
 0002:00001780       ??_C@_04CLCEDBPF@time?$AA@ 1009b780     interop.obj
 0002:00001788       ??_C@_04JNIHBGGH@date?$AA@ 1009b788     interop.obj
 0002:00001790       ??_C@_09BPOICPEH@julianday?$AA@ 1009b790     interop.obj
 0002:0000179c       ??_C@_0N@HEAGAILC@THREADSAFE?$DN1?$AA@ 1009b79c     interop.obj
 0002:000017ac       ??_C@_0N@GOJBLMJA@TEMP_STORE?$DN1?$AA@ 1009b7ac     interop.obj
 0002:000017bc       ??_C@_07FIPCPJFC@SOUNDEX?$AA@ 1009b7bc     interop.obj
 0002:000017c4       ??_C@_09LMNJIBDP@HAS_CODEC?$AA@ 1009b7c4     interop.obj
 0002:000017d0       ??_C@_0N@HDELIEAL@ENABLE_STAT3?$AA@ 1009b7d0     interop.obj
 0002:000017e0       ??_C@_0N@JODKLIOI@ENABLE_RTREE?$AA@ 1009b7e0     interop.obj
 0002:000017f0       ??_C@_0BG@DOKPBAOP@ENABLE_LOAD_EXTENSION?$AA@ 1009b7f0     interop.obj
 0002:00001808       ??_C@_0M@LFFMHLBN@ENABLE_FTS3?$AA@ 1009b808     interop.obj
 0002:00001814       ??_C@_0BH@CMJLKIMD@ENABLE_COLUMN_METADATA?$AA@ 1009b814     interop.obj
 0002:0000182c       ??_C@_06OKFAAMHJ@CURDIR?$AA@ 1009b82c     interop.obj
 0002:00001834       ??_C@_01HIHLOKLC@1?$AA@    1009b834     interop.obj
 0002:00001838       ??_C@_01GBGANLPD@0?$AA@    1009b838     interop.obj
 0002:00001840       _sqlite3_version           1009b840     interop.obj
 0002:00005498       ??_C@_07OGLCFANK@SQLITE_?$AA@ 1009f498     interop.obj
 0002:000054a0       ??_C@_03CGLHMDPP@now?$AA@  1009f4a0     interop.obj
 0002:000054a4       ??_C@_0BH@HEILFFIJ@local?5time?5unavailable?$AA@ 1009f4a4     interop.obj
 0002:000054bc       ??_C@_09EKBOCLDN@localtime?$AA@ 1009f4bc     interop.obj
 0002:000054c8       ??_C@_09KNIMKLBK@unixepoch?$AA@ 1009f4c8     interop.obj
 0002:000054d4       ??_C@_03JPHCIIKF@utc?$AA@  1009f4d4     interop.obj
 0002:000054d8       ??_C@_08IPAOEBNP@weekday?5?$AA@ 1009f4d8     interop.obj
 0002:000054e4       ??_C@_09CABLEOFK@start?5of?5?$AA@ 1009f4e4     interop.obj
 0002:000054f0       ??_C@_05MEBAADFH@month?$AA@ 1009f4f0     interop.obj
 0002:000054f8       ??_C@_04JFPLDHAO@year?$AA@ 1009f4f8     interop.obj
 0002:00005500       ??_C@_03NNBHCDBP@day?$AA@  1009f500     interop.obj
 0002:00005504       ??_C@_04LMOJGCPE@hour?$AA@ 1009f504     interop.obj
 0002:0000550c       ??_C@_06JGJIJFNK@minute?$AA@ 1009f50c     interop.obj
 0002:00005514       ??_C@_06BJCFNGJP@second?$AA@ 1009f514     interop.obj
 0002:0000551c       ??_C@_0BO@NGNOHJIK@?$CF04d?9?$CF02d?9?$CF02d?5?$CF02d?3?$CF02d?3?$CF02d?$AA@ 1009f51c     interop.obj
 0002:0000553c       ??_C@_0P@PLMNPDMB@?$CF02d?3?$CF02d?3?$CF02d?$AA@ 1009f53c     interop.obj
 0002:0000554c       ??_C@_0P@MCDGMPHH@?$CF04d?9?$CF02d?9?$CF02d?$AA@ 1009f54c     interop.obj
 0002:0000555c       ??_C@_04OGKJMPGK@?$CF02d?$AA@ 1009f55c     interop.obj
 0002:00005564       ??_C@_06IAGKDDNE@?$CF06?43f?$AA@ 1009f564     interop.obj
 0002:0000556c       ??_C@_04OHGLKFFN@?$CF03d?$AA@ 1009f56c     interop.obj
 0002:00005574       ??_C@_05CFGAKADK@?$CF?416g?$AA@ 1009f574     interop.obj
 0002:0000557c       ??_C@_04BFAHMMK@?$CFlld?$AA@ 1009f57c     interop.obj
 0002:00005584       ??_C@_04OCCELDNI@?$CF04d?$AA@ 1009f584     interop.obj
 0002:0000558c       ??_C@_01FGNFDNOH@?$CF?$AA@ 1009f58c     interop.obj
 0002:00005590       ??_C@_03ICJPMMHB@NaN?$AA@  1009f590     interop.obj
 0002:00005594       ??_C@_04JHHONOOL@?9Inf?$AA@ 1009f594     interop.obj
 0002:0000559c       ??_C@_04BIDOCLEL@?$CLInf?$AA@ 1009f59c     interop.obj
 0002:000055a4       ??_C@_03EJEJBNFP@Inf?$AA@  1009f5a4     interop.obj
 0002:000055a8       ??_C@_00CNPNBAHC@?$AA@     1009f5a8     interop.obj
 0002:000055ac       ??_C@_04HIBGFPH@NULL?$AA@  1009f5ac     interop.obj
 0002:000055b4       ??_C@_06LHGEHABH@?$CINULL?$CJ?$AA@ 1009f5b4     interop.obj
 0002:000055bc       ??_C@_01LFCBOECM@?4?$AA@   1009f5bc     interop.obj
 0002:000055c0       ??_C@_0BD@FKIFACO@922337203685477580?$AA@ 1009f5c0     interop.obj
 0002:000055d4       ??_C@_0CN@EOKIBNLJ@API?5call?5with?5?$CFs?5database?5connec@ 1009f5d4     interop.obj
 0002:00005604       ??_C@_08NFNJDBOK@unopened?$AA@ 1009f604     interop.obj
 0002:00005610       ??_C@_07MALOAKCI@invalid?$AA@ 1009f610     interop.obj
 0002:00005618       ??_C@_0CL@BNLKJAJL@failed?5to?5HeapAlloc?5?$CFu?5bytes?5?$CI?$CFd@ 1009f618     interop.obj
 0002:00005644       ??_C@_0CK@MKEMOJHF@failed?5to?5HeapFree?5block?5?$CFp?5?$CI?$CFd?$CJ@ 1009f644     interop.obj
 0002:00005670       ??_C@_0CE@OGBCNCMD@failed?5to?5?$CFs?5?$CFu?5bytes?5?$CI?$CFd?$CJ?0?5heap@ 1009f670     interop.obj
 0002:00005694       ??_C@_0CK@NOKLGMDC@failed?5to?5HeapSize?5block?5?$CFp?5?$CI?$CFd?$CJ@ 1009f694     interop.obj
 0002:000056c0       ??_C@_0DN@FJJLINBJ@failed?5to?5HeapCreate?5?$CI?$CFd?$CJ?0?5flags@ 1009f6c0     interop.obj
 0002:00005700       ??_C@_0CE@LPELHPP@failed?5to?5HeapDestroy?5?$CI?$CFd?$CJ?0?5heap@ 1009f700     interop.obj
 0002:00005724       ??_C@_0BC@EPLOMDIH@OsError?50x?$CFx?5?$CI?$CFu?$CJ?$AA@ 1009f724     interop.obj
 0002:00005738       ??_C@_02DKCKIIND@?$CFs?$AA@ 1009f738     interop.obj
 0002:0000573c       ??_C@_0BO@HHKGCFGO@os_win?4c?3?$CFd?3?5?$CI?$CFd?$CJ?5?$CFs?$CI?$CFs?$CJ?5?9?5?$CFs?$AA@ 1009f73c     interop.obj
 0002:0000575c       ??_C@_0CH@IOAFGIGM@delayed?5?$CFdms?5for?5lock?1sharing?5co@ 1009f75c     interop.obj
 0002:00005784       ??_C@_0M@KEGMKFKG@seekWinFile?$AA@ 1009f784     interop.obj
 0002:00005790       ??_C@_08GBGPIFFF@winClose?$AA@ 1009f790     interop.obj
 0002:0000579c       ??_C@_07BGDHELCN@winRead?$AA@ 1009f79c     interop.obj
 0002:000057a4       ??_C@_08GNMKFGC@winWrite?$AA@ 1009f7a4     interop.obj
 0002:000057b0       ??_C@_0N@JHOIFHJA@winTruncate1?$AA@ 1009f7b0     interop.obj
 0002:000057c0       ??_C@_0N@LMMFAEFD@winTruncate2?$AA@ 1009f7c0     interop.obj
 0002:000057d0       ??_C@_07HFIFFLEA@winSync?$AA@ 1009f7d0     interop.obj
 0002:000057d8       ??_C@_0M@DODNMLAG@winFileSize?$AA@ 1009f7d8     interop.obj
 0002:000057e4       ??_C@_0P@DMNKIFMO@unlockReadLock?$AA@ 1009f7e4     interop.obj
 0002:000057f4       ??_C@_09INENJOCI@winUnlock?$AA@ 1009f7f4     interop.obj
 0002:00005800       ??_C@_05NMJMPJJB@win32?$AA@ 1009f800     interop.obj
 0002:00005808       ??_C@_06KEOMCCGA@?$CFs?9shm?$AA@ 1009f808     interop.obj
 0002:00005810       ??_C@_0L@NHPDAEHO@winOpenShm?$AA@ 1009f810     interop.obj
 0002:0000581c       ??_C@_0L@JMPNPFLA@winShmMap1?$AA@ 1009f81c     interop.obj
 0002:00005828       ??_C@_0L@LHNAKGHD@winShmMap2?$AA@ 1009f828     interop.obj
 0002:00005834       ??_C@_0L@KOMLJHDC@winShmMap3?$AA@ 1009f834     interop.obj
 0002:00005840       ??_C@_07NBNPOOME@etilqs_?$AA@ 1009f840     interop.obj
 0002:00005848       ??_C@_0L@KBKJCPCN@?$CFs?2etilqs_?$AA@ 1009f848     interop.obj
 0002:00005854       ??_C@_07BEGGPPOF@winOpen?$AA@ 1009f854     interop.obj
 0002:0000585c       ??_C@_04JKHAIEHD@psow?$AA@ 1009f85c     interop.obj
 0002:00005864       ??_C@_09MOHEIBIO@winDelete?$AA@ 1009f864     interop.obj
 0002:00005870       ??_C@_09NBJCHJLH@winAccess?$AA@ 1009f870     interop.obj
 0002:0000587c       ??_C@_05BMGBEOOC@?$CFs?2?$CFs?$AA@ 1009f87c     interop.obj
 0002:00005884       ??_C@_09HKLPJOIM@?9journal?$AA?$AA@ 1009f884     interop.obj
 0002:00005890       ??_C@_05HMKKNGEJ@?9wal?$AA?$AA@ 1009f890     interop.obj
 0002:00005898       ??_C@_0CF@IHLLJHCL@Recovered?5?$CFd?5frames?5from?5WAL?5fil@ 1009f898     interop.obj
 0002:000058c0       ??_C@_0BK@NCCCKLLJ@cannot?5limit?5WAL?5size?3?5?$CFs?$AA@ 1009f8c0     interop.obj
 0002:000058dc       ??_C@_08CADOGOJM@?3memory?3?$AA@ 1009f8dc     interop.obj
 0002:000058e8       ??_C@_01EEMJAFIK@?6?$AA@   1009f8e8     interop.obj
 0002:000058ec       ??_C@_0BH@LLKFEBHC@invalid?5page?5number?5?$CFd?$AA@ 1009f8ec     interop.obj
 0002:00005904       ??_C@_0BJ@HHKCLCDH@2nd?5reference?5to?5page?5?$CFd?$AA@ 1009f904     interop.obj
 0002:00005920       ??_C@_0BN@NJCBBLIO@Failed?5to?5read?5ptrmap?5key?$DN?$CFd?$AA@ 1009f920     interop.obj
 0002:00005940       ??_C@_0DG@EAEHHDPC@Bad?5ptr?5map?5entry?5key?$DN?$CFd?5expecte@ 1009f940     interop.obj
 0002:00005978       ??_C@_0DJ@PBFEOOMP@?$CFd?5of?5?$CFd?5pages?5missing?5from?5over@ 1009f978     interop.obj
 0002:000059b4       ??_C@_0BG@GMIBDIEE@failed?5to?5get?5page?5?$CFd?$AA@ 1009f9b4     interop.obj
 0002:000059cc       ??_C@_0CH@LNHECGJJ@freelist?5leaf?5count?5too?5big?5on?5p@ 1009f9cc     interop.obj
 0002:000059f4       ??_C@_09OLGIMPDE@Page?5?$CFd?3?5?$AA@ 1009f9f4     interop.obj
 0002:00005a00       ??_C@_0CG@ILLDAEJM@unable?5to?5get?5the?5page?4?5error?5co@ 1009fa00     interop.obj
 0002:00005a28       ??_C@_0CG@FFKEALPN@btreeInitPage?$CI?$CJ?5returns?5error?5co@ 1009fa28     interop.obj
 0002:00005a50       ??_C@_0BK@DEBKKJM@On?5tree?5page?5?$CFd?5cell?5?$CFd?3?5?$AA@ 1009fa50     interop.obj
 0002:00005a6c       ??_C@_0CM@NFGNKDIE@Rowid?5?$CFlld?5out?5of?5order?5?$CIpreviou@ 1009fa6c     interop.obj
 0002:00005a98       ??_C@_0BJ@FLOCKNJL@Child?5page?5depth?5differs?$AA@ 1009fa98     interop.obj
 0002:00005ab4       ??_C@_0BM@FMPLCKPB@On?5page?5?$CFd?5at?5right?5child?3?5?$AA@ 1009fab4     interop.obj
 0002:00005ad0       ??_C@_0DN@FNPJJAIO@Rowid?5?$CFlld?5out?5of?5order?5?$CImax?5lar@ 1009fad0     interop.obj
 0002:00005b10       ??_C@_0DL@JMELIBGM@Rowid?5?$CFlld?5out?5of?5order?5?$CImin?5les@ 1009fb10     interop.obj
 0002:00005b4c       ??_C@_0DN@BNLGOIPI@Rowid?5?$CFlld?5out?5of?5order?5?$CImax?5lar@ 1009fb4c     interop.obj
 0002:00005b8c       ??_C@_0DL@NMAEPJBK@Rowid?5?$CFlld?5out?5of?5order?5?$CImin?5les@ 1009fb8c     interop.obj
 0002:00005bc8       ??_C@_0CK@JLHLDHFB@Corruption?5detected?5in?5cell?5?$CFd?5o@ 1009fbc8     interop.obj
 0002:00005bf4       ??_C@_0CF@DKGAOHID@Multiple?5uses?5for?5byte?5?$CFd?5of?5pag@ 1009fbf4     interop.obj
 0002:00005c1c       ??_C@_0DE@NONOJPEC@Fragmentation?5of?5?$CFd?5bytes?5report@ 1009fc1c     interop.obj
 0002:00005c50       ??_C@_0BA@EAICBBKE@Main?5freelist?3?5?$AA@ 1009fc50     interop.obj
 0002:00005c60       ??_C@_0BF@CFAFGJN@List?5of?5tree?5roots?3?5?$AA@ 1009fc60     interop.obj
 0002:00005c78       ??_C@_0BG@NJBAMKDO@Page?5?$CFd?5is?5never?5used?$AA@ 1009fc78     interop.obj
 0002:00005c90       ??_C@_0CC@IBCKHFBM@Pointer?5map?5page?5?$CFd?5is?5reference@ 1009fc90     interop.obj
 0002:00005cb4       ??_C@_0DP@PJBOOLEO@Outstanding?5page?5count?5goes?5from@ 1009fcb4     interop.obj
 0002:00005cf4       ??_C@_0O@BNNCBLEN@out?5of?5memory?$AA@ 1009fcf4     interop.obj
 0002:00005d04       ??_C@_0BE@OKPJBBEB@unknown?5database?5?$CFs?$AA@ 1009fd04     interop.obj
 0002:00005d18       ??_C@_0CI@IHDDPHMP@source?5and?5destination?5must?5be?5d@ 1009fd18     interop.obj
 0002:00005d40       ??_C@_06NJMDEJD@?$CF?$CB?415g?$AA@ 1009fd40     interop.obj
 0002:00005d48       ??_C@_01JOAMLHOP@?9?$AA@   1009fd48     interop.obj
 0002:00005d4c       ??_C@_04HDOCAJNK@?$CFs?$CFs?$AA@ 1009fd4c     interop.obj
 0002:00005d54       ??_C@_0L@HDAMIFP@keyinfo?$CI?$CFd?$AA@ 1009fd54     interop.obj
 0002:00005d60       ??_C@_0P@BMGKNHBK@collseq?$CI?$CF?420s?$CJ?$AA@ 1009fd60     interop.obj
 0002:00005d70       ??_C@_06BPGFIOAL@?$CFs?$CI?$CFd?$CJ?$AA@ 1009fd70     interop.obj
 0002:00005d78       ??_C@_02DPKJAMEF@?$CFd?$AA@ 1009fd78     interop.obj
 0002:00005d7c       ??_C@_06OLGPAEJH@?$CIblob?$CJ?$AA@ 1009fd7c     interop.obj
 0002:00005d84       ??_C@_0L@IIBEKKAO@vtab?3?$CFp?3?$CFp?$AA@ 1009fd84     interop.obj
 0002:00005d90       ??_C@_08CBEPOPA@intarray?$AA@ 1009fd90     interop.obj
 0002:00005d9c       ??_C@_07MHLKLKDM@program?$AA@ 1009fd9c     interop.obj
 0002:00005da4       ??_C@_04LABILCJL@?$CF?42x?$AA@ 1009fda4     interop.obj
 0002:00005dac       ??_C@_0BA@FKMAFLJK@?$CFs?9mjXXXXXX9XXz?$AA@ 1009fdac     interop.obj
 0002:00005dbc       ??_C@_0O@IDFCBAPA@MJ?5delete?3?5?$CFs?$AA@ 1009fdbc     interop.obj
 0002:00005dcc       ??_C@_0P@EKBGDFBG@MJ?5collide?3?5?$CFs?$AA@ 1009fdcc     interop.obj
 0002:00005ddc       ??_C@_0N@FLHACMNC@?9mj?$CF06X9?$CF02X?$AA@ 1009fddc     interop.obj
 0002:00005dec       ??_C@_0BO@IFNOPDMA@foreign?5key?5constraint?5failed?$AA@ 1009fdec     interop.obj
 0002:00005e0c       ??_C@_0CN@JCKHFJMJ@API?5called?5with?5finalized?5prepar@ 1009fe0c     interop.obj
 0002:00005e3c       ??_C@_0CI@DGDEMKDJ@API?5called?5with?5NULL?5prepared?5st@ 1009fe3c     interop.obj
 0002:00005e64       ??_C@_0BH@BEFJIDGM@string?5or?5blob?5too?5big?$AA@ 1009fe64     interop.obj
 0002:00005e7c       ??_C@_0DD@BOPMNMAO@unable?5to?5use?5function?5?$CFs?5in?5the@ 1009fe7c     interop.obj
 0002:00005eb0       ??_C@_0CI@NKIMDBDG@bind?5on?5a?5busy?5prepared?5statemen@ 1009feb0     interop.obj
 0002:00005ed8       ??_C@_03CJPCKGBB@?9?9?5?$AA@ 1009fed8     interop.obj
 0002:00005edc       ??_C@_06BGANNCL@?8?$CF?4?$CKq?8?$AA@ 1009fedc     interop.obj
 0002:00005ee4       ??_C@_0N@OGKFEFFN@zeroblob?$CI?$CFd?$CJ?$AA@ 1009fee4     interop.obj
 0002:00005ef4       ??_C@_02IAJJKNGA@x?8?$AA@  1009fef4     interop.obj
 0002:00005ef8       ??_C@_04NOJCDH@?$CF02x?$AA@ 1009fef8     interop.obj
 0002:00005f00       ??_C@_01GEODFPGF@?8?$AA@   1009ff00     interop.obj
 0002:00005f04       ??_C@_0BI@CKCEIKAL@abort?5at?5?$CFd?5in?5?$FL?$CFs?$FN?3?5?$CFs?$AA@ 1009ff04     interop.obj
 0002:00005f1c       ??_C@_0CA@CCGMBGM@constraint?5failed?5at?5?$CFd?5in?5?$FL?$CFs?$FN?$AA@ 1009ff1c     interop.obj
 0002:00005f3c       ??_C@_0DD@EHMCJFDN@cannot?5open?5savepoint?5?9?5SQL?5stat@ 1009ff3c     interop.obj
 0002:00005f70       ??_C@_0BG@NADCOEGF@no?5such?5savepoint?3?5?$CFs?$AA@ 1009ff70     interop.obj
 0002:00005f88       ??_C@_0DG@JCGPCDM@cannot?5release?5savepoint?5?9?5SQL?5s@ 1009ff88     interop.obj
 0002:00005fc0       ??_C@_0DH@EPKPHENF@cannot?5commit?5transaction?5?9?5SQL?5@ 1009ffc0     interop.obj
 0002:00005ff8       ??_C@_0DA@CKKHGBEC@cannot?5start?5a?5transaction?5withi@ 1009fff8     interop.obj
 0002:00006028       ??_C@_0CL@DIEDEFLK@cannot?5rollback?5?9?5no?5transaction@ 100a0028     interop.obj
 0002:00006054       ??_C@_0CJ@LALCBGBP@cannot?5commit?5?9?5no?5transaction?5i@ 100a0054     interop.obj
 0002:00006080       ??_C@_0BM@FKBOKANJ@database?5schema?5has?5changed?$AA@ 100a0080     interop.obj
 0002:0000609c       ??_C@_0BD@OLGFAFA@sqlite_temp_master?$AA@ 100a009c     interop.obj
 0002:000060b0       ??_C@_0O@JMEKHCEB@sqlite_master?$AA@ 100a00b0     interop.obj
 0002:000060c0       ??_C@_0EA@GFNDAJBJ@SELECT?5name?0?5rootpage?0?5sql?5FROM?5@ 100a00c0     interop.obj
 0002:00006100       ??_C@_0CF@DBNDEPJP@too?5many?5levels?5of?5trigger?5recur@ 100a0100     interop.obj
 0002:00006128       ??_C@_04MHJLCKAK@into?$AA@ 100a0128     interop.obj
 0002:00006130       ??_C@_06JIMOCJPC@out?5of?$AA@ 100a0130     interop.obj
 0002:00006138       ??_C@_0DE@KIPNAMAA@cannot?5change?5?$CFs?5wal?5mode?5from?5w@ 100a0138     interop.obj
 0002:0000616c       ??_C@_0BN@JOIFECGM@database?5table?5is?5locked?3?5?$CFs?$AA@ 100a016c     interop.obj
 0002:0000618c       ??_C@_0CA@JGFGBIFL@statement?5aborts?5at?5?$CFd?3?5?$FL?$CFs?$FN?5?$CFs?$AA@ 100a018c     interop.obj
 0002:000061ac       ??_C@_04MLLLIHIP@null?$AA@ 100a01ac     interop.obj
 0002:000061b4       ??_C@_04DGGKDJMA@real?$AA@ 100a01b4     interop.obj
 0002:000061bc       ??_C@_07LKHFMGFB@integer?$AA@ 100a01bc     interop.obj
 0002:000061c4       ??_C@_0BN@OFFACDFM@cannot?5open?5value?5of?5type?5?$CFs?$AA@ 100a01c4     interop.obj
 0002:000061e4       ??_C@_0BE@PGLAJEIK@no?5such?5rowid?3?5?$CFlld?$AA@ 100a01e4     interop.obj
 0002:000061f8       ??_C@_0BO@BCBGJJEM@cannot?5open?5virtual?5table?3?5?$CFs?$AA@ 100a01f8     interop.obj
 0002:00006218       ??_C@_0BF@LEHNPEDD@cannot?5open?5view?3?5?$CFs?$AA@ 100a0218     interop.obj
 0002:00006230       ??_C@_0BF@IFOHJMAC@no?5such?5column?3?5?$CC?$CFs?$CC?$AA@ 100a0230     interop.obj
 0002:00006248       ??_C@_0M@EKGNDAGL@foreign?5key?$AA@ 100a0248     interop.obj
 0002:00006254       ??_C@_07KNEBDGNE@indexed?$AA@ 100a0254     interop.obj
 0002:0000625c       ??_C@_0CC@PCDMPIAA@cannot?5open?5?$CFs?5column?5for?5writin@ 100a025c     interop.obj
 0002:00006280       ??_C@_03CLCAEGCJ@new?$AA@  100a0280     interop.obj
 0002:00006284       ??_C@_03PNKCFLFB@old?$AA@  100a0284     interop.obj
 0002:00006288       ??_C@_0BP@LIGNHLP@misuse?5of?5aliased?5aggregate?5?$CFs?$AA@ 100a0288     interop.obj
 0002:000062a8       ??_C@_0P@OOEELNMH@no?5such?5column?$AA@ 100a02a8     interop.obj
 0002:000062b8       ??_C@_0BG@CPPEOILG@ambiguous?5column?5name?$AA@ 100a02b8     interop.obj
 0002:000062d0       ??_C@_0N@GOMHGJCA@?$CFs?3?5?$CFs?4?$CFs?4?$CFs?$AA@ 100a02d0     interop.obj
 0002:000062e0       ??_C@_09DEPFKOIN@?$CFs?3?5?$CFs?4?$CFs?$AA@ 100a02e0     interop.obj
 0002:000062ec       ??_C@_06DJHOIPC@?$CFs?3?5?$CFs?$AA@ 100a02ec     interop.obj
 0002:000062f4       ??_C@_0CD@CLOCOINF@not?5authorized?5to?5use?5function?3?5@ 100a02f4     interop.obj
 0002:00006318       ??_C@_0CE@JOMBDPK@misuse?5of?5aggregate?5function?5?$CF?4?$CK@ 100a0318     interop.obj
 0002:0000633c       ??_C@_0BH@DEPAIHDK@no?5such?5function?3?5?$CF?4?$CKs?$AA@ 100a033c     interop.obj
 0002:00006354       ??_C@_0CN@GBOJIJCC@wrong?5number?5of?5arguments?5to?5fun@ 100a0354     interop.obj
 0002:00006384       ??_C@_0CL@HPCDGFPK@subqueries?5prohibited?5in?5CHECK?5c@ 100a0384     interop.obj
 0002:000063b0       ??_C@_0CL@HIKOHDBA@parameters?5prohibited?5in?5CHECK?5c@ 100a03b0     interop.obj
 0002:000063dc       ??_C@_0DI@IJOLPLNO@?$CFr?5?$CFs?5BY?5term?5out?5of?5range?5?9?5sho@ 100a03dc     interop.obj
 0002:00006414       ??_C@_0CC@GEJJPDIE@too?5many?5terms?5in?5ORDER?5BY?5claus@ 100a0414     interop.obj
 0002:00006438       ??_C@_05BIEKMFNJ@ORDER?$AA@ 100a0438     interop.obj
 0002:00006440       ??_C@_0DN@KHANHMIL@?$CFr?5ORDER?5BY?5term?5does?5not?5match?5@ 100a0440     interop.obj
 0002:00006480       ??_C@_0BP@OLNMGBH@too?5many?5terms?5in?5?$CFs?5BY?5clause?$AA@ 100a0480     interop.obj
 0002:000064a0       ??_C@_0CM@CFGBPLAG@a?5GROUP?5BY?5clause?5is?5required?5be@ 100a04a0     interop.obj
 0002:000064cc       ??_C@_05NAIABEH@GROUP?$AA@ 100a04cc     interop.obj
 0002:000064d4       ??_C@_0DL@LDIIFJFH@aggregate?5functions?5are?5not?5allo@ 100a04d4     interop.obj
 0002:00006510       ??_C@_0DA@HPOBBFJP@Expression?5tree?5is?5too?5large?5?$CIma@ 100a0510     interop.obj
 0002:00006540       ??_C@_0CL@MAPAMFMM@variable?5number?5must?5be?5between?5@ 100a0540     interop.obj
 0002:0000656c       ??_C@_0BH@KLMBLGJH@too?5many?5SQL?5variables?$AA@ 100a056c     interop.obj
 0002:00006584       ??_C@_0BH@HJGFDJPB@too?5many?5columns?5in?5?$CFs?$AA@ 100a0584     interop.obj
 0002:0000659c       ??_C@_07HKAAOBDA@_ROWID_?$AA@ 100a059c     interop.obj
 0002:000065a4       ??_C@_05GIFMDDGN@ROWID?$AA@ 100a05a4     interop.obj
 0002:000065ac       ??_C@_03PGJCFEMG@OID?$AA@  100a05ac     interop.obj
 0002:000065b0       ??_C@_04PCOPKCKE@LIST?$AA@ 100a05b0     interop.obj
 0002:000065b8       ??_C@_06LEOGOFDE@SCALAR?$AA@ 100a05b8     interop.obj
 0002:000065c0       ??_C@_0M@MCLOEEML@CORRELATED?5?$AA@ 100a05c0     interop.obj
 0002:000065cc       ??_C@_0BJ@HNBNONDH@EXECUTE?5?$CFs?$CFs?5SUBQUERY?5?$CFd?$AA@ 100a05cc     interop.obj
 0002:000065e8       ??_C@_0BK@BMEAFNCN@misuse?5of?5aggregate?3?5?$CFs?$CI?$CJ?$AA@ 100a05e8     interop.obj
 0002:00006604       ??_C@_0BJ@HFDHLKDG@unknown?5function?3?5?$CF?4?$CKs?$CI?$CJ?$AA@ 100a0604     interop.obj
 0002:00006620       ??_C@_0DC@JGGJAPOJ@RAISE?$CI?$CJ?5may?5only?5be?5used?5within?5@ 100a0620     interop.obj
 0002:00006654       ??_C@_0L@HDDJIJMP@?$CF?4?$CKs?$CC?$CFw?$CC?$CFs?$AA@ 100a0654     interop.obj
 0002:00006660       ??_C@_0L@GGMNOGLF@?$CFs?$CF?4?$CKs?$CC?$CFw?$CC?$AA@ 100a0660     interop.obj
 0002:0000666c       ??_C@_07IKCPJJF@name?$DN?$CFQ?$AA@ 100a066c     interop.obj
 0002:00006674       ??_C@_0O@JAFDLLMD@?$CFs?5OR?5name?$DN?$CFQ?$AA@ 100a0674     interop.obj
 0002:00006684       ??_C@_0BI@IBIDABAM@type?$DN?8trigger?8?5AND?5?$CI?$CFs?$CJ?$AA@ 100a0684     interop.obj
 0002:0000669c       ??_C@_0M@FPJBBPLI@tbl_name?$DN?$CFQ?$AA@ 100a069c     interop.obj
 0002:000066a8       ??_C@_07IOGLMIPM@sqlite_?$AA@ 100a06a8     interop.obj
 0002:000066b0       ??_C@_0BM@IAHFHDLE@table?5?$CFs?5may?5not?5be?5altered?$AA@ 100a06b0     interop.obj
 0002:000066cc       ??_C@_0DL@DAEIJKNC@there?5is?5already?5another?5table?5o@ 100a06cc     interop.obj
 0002:00006708       ??_C@_0BL@FIDIAKLG@view?5?$CFs?5may?5not?5be?5altered?$AA@ 100a0708     interop.obj
 0002:00006728       ??_C@_0EF@LBDFNLNO@UPDATE?5?$CC?$CFw?$CC?4?$CFs?5SET?5sql?5?$DN?5sqlite_@ 100a0728     interop.obj
 0002:00006770       ??_C@_0BIA@DMFFJHNO@UPDATE?5?$CFQ?4?$CFs?5SET?5sql?5?$DN?5CASE?5WHEN@ 100a0770     interop.obj
 0002:000068f0       ??_C@_0BA@KDDGKFDH@sqlite_sequence?$AA@ 100a08f0     interop.obj
 0002:00006900       ??_C@_0DK@NPMGFNPC@UPDATE?5?$CC?$CFw?$CC?4sqlite_sequence?5set?5@ 100a0900     interop.obj
 0002:00006940       ??_C@_0FM@GJOILOPP@UPDATE?5sqlite_temp_master?5SET?5sq@ 100a0940     interop.obj
 0002:0000699c       ??_C@_0CA@KEHKHMLG@Cannot?5add?5a?5PRIMARY?5KEY?5column?$AA@ 100a099c     interop.obj
 0002:000069bc       ??_C@_0BL@NAFLCLKF@Cannot?5add?5a?5UNIQUE?5column?$AA@ 100a09bc     interop.obj
 0002:000069d8       ??_C@_0DL@KNFPANHI@Cannot?5add?5a?5REFERENCES?5column?5w@ 100a09d8     interop.obj
 0002:00006a14       ??_C@_0DF@JACFJFPO@Cannot?5add?5a?5NOT?5NULL?5column?5wit@ 100a0a14     interop.obj
 0002:00006a4c       ??_C@_0CO@DPKGGDEF@Cannot?5add?5a?5column?5with?5non?9con@ 100a0a4c     interop.obj
 0002:00006a80       ??_C@_0GN@GPPLIGGM@UPDATE?5?$CC?$CFw?$CC?4?$CFs?5SET?5sql?5?$DN?5substr?$CI@ 100a0a80     interop.obj
 0002:00006af0       ??_C@_0CC@HCCMFAJP@virtual?5tables?5may?5not?5be?5altere@ 100a0af0     interop.obj
 0002:00006b14       ??_C@_0BO@IKHDEECD@Cannot?5add?5a?5column?5to?5a?5view?$AA@ 100a0b14     interop.obj
 0002:00006b34       ??_C@_0BD@PKLNNDD@sqlite_altertab_?$CFs?$AA@ 100a0b34     interop.obj
 0002:00006b48       ??_C@_0BH@NPNIHFHO@CREATE?5TABLE?5?$CFQ?4?$CFs?$CI?$CFs?$CJ?$AA@ 100a0b48     interop.obj
 0002:00006b60       ??_C@_0BO@HNIAJBGG@DELETE?5FROM?5?$CFQ?4?$CFs?5WHERE?5?$CFs?$DN?$CFQ?$AA@ 100a0b60     interop.obj
 0002:00006b80       ??_C@_06FFMDNONC@bbbbbb?$AA@ 100a0b80     interop.obj
 0002:00006b88       ??_C@_01CLKCMJKC@?5?$AA@   100a0b88     interop.obj
 0002:00006b8c       ??_C@_03GINCELHE@aaa?$AA@  100a0b8c     interop.obj
 0002:00006b90       ??_C@_03DAKNAIGI@idx?$AA@  100a0b90     interop.obj
 0002:00006b94       ??_C@_03LIPNCMMN@tbl?$AA@  100a0b94     interop.obj
 0002:00006b98       ??_C@_09KGIEIKHI@unordered?$AA@ 100a0b98     interop.obj
 0002:00006ba4       ??_C@_0DG@KHFPEBKH@SELECT?5idx?0count?$CI?$CK?$CJ?5FROM?5?$CFQ?4sqli@ 100a0ba4     interop.obj
 0002:00006bdc       ??_C@_0DE@GKJIFEOA@SELECT?5idx?0neq?0nlt?0ndlt?0sample?5F@ 100a0bdc     interop.obj
 0002:00006c10       ??_C@_0CJ@CJKDHBGL@SELECT?5tbl?0idx?0stat?5FROM?5?$CFQ?4sqli@ 100a0c10     interop.obj
 0002:00006c3c       ??_C@_0BD@BGLLCPKM@invalid?5name?3?5?$CC?$CFs?$CC?$AA@ 100a0c3c     interop.obj
 0002:00006c50       ??_C@_0CF@FLFLBLIN@too?5many?5attached?5databases?5?9?5ma@ 100a0c50     interop.obj
 0002:00006c78       ??_C@_0CK@JEFPBLHB@cannot?5ATTACH?5database?5within?5tr@ 100a0c78     interop.obj
 0002:00006ca4       ??_C@_0BO@FOBANNIG@database?5?$CFs?5is?5already?5in?5use?$AA@ 100a0ca4     interop.obj
 0002:00006cc4       ??_C@_0BN@IAAPNCPC@database?5is?5already?5attached?$AA@ 100a0cc4     interop.obj
 0002:00006ce8       ??_C@_0EE@MLIDCBJA@attached?5databases?5must?5use?5the?5@ 100a0ce8     interop.obj
 0002:00006d2c       ??_C@_0BC@BMCHOAML@Invalid?5key?5value?$AA@ 100a0d2c     interop.obj
 0002:00006d40       ??_C@_0BM@JECJFHOP@unable?5to?5open?5database?3?5?$CFs?$AA@ 100a0d40     interop.obj
 0002:00006d5c       ??_C@_0BF@PJFCJDG@no?5such?5database?3?5?$CFs?$AA@ 100a0d5c     interop.obj
 0002:00006d74       ??_C@_0BK@KGABJE@cannot?5detach?5database?5?$CFs?$AA@ 100a0d74     interop.obj
 0002:00006d90       ??_C@_0CK@NCGPBHIO@cannot?5DETACH?5database?5within?5tr@ 100a0d90     interop.obj
 0002:00006dbc       ??_C@_0BG@HKAEEBEM@database?5?$CFs?5is?5locked?$AA@ 100a0dbc     interop.obj
 0002:00006dd4       ??_C@_0CO@IGOBCPDP@?$CFs?5?$CFT?5cannot?5reference?5objects?5i@ 100a0dd4     interop.obj
 0002:00006e04       ??_C@_0BH@KNHNEHPN@authorizer?5malfunction?$AA@ 100a0e04     interop.obj
 0002:00006e1c       ??_C@_0CB@NCPGIDCD@access?5to?5?$CFs?4?$CFs?4?$CFs?5is?5prohibited@ 100a0e1c     interop.obj
 0002:00006e40       ??_C@_0BO@CMCIGPCH@access?5to?5?$CFs?4?$CFs?5is?5prohibited?$AA@ 100a0e40     interop.obj
 0002:00006e60       ??_C@_0P@PEBGBLCC@not?5authorized?$AA@ 100a0e60     interop.obj
 0002:00006e70       ??_C@_0N@IAMBEAMM@no?5such?5view?$AA@ 100a0e70     interop.obj
 0002:00006e80       ??_C@_0O@HKMEEONL@no?5such?5table?$AA@ 100a0e80     interop.obj
 0002:00006e90       ??_C@_0BB@GODMDNII@corrupt?5database?$AA@ 100a0e90     interop.obj
 0002:00006ea4       ??_C@_0BE@DADMKDCE@unknown?5database?5?$CFT?$AA@ 100a0ea4     interop.obj
 0002:00006eb8       ??_C@_0CK@DHAAGEMP@object?5name?5reserved?5for?5interna@ 100a0eb8     interop.obj
 0002:00006ee4       ??_C@_0CJ@GGBIBJLH@temporary?5table?5name?5must?5be?5unq@ 100a0ee4     interop.obj
 0002:00006f10       ??_C@_0BI@NMBJKJHP@table?5?$CFT?5already?5exists?$AA@ 100a0f10     interop.obj
 0002:00006f28       ??_C@_0CD@FJHICPML@there?5is?5already?5an?5index?5named?5@ 100a0f28     interop.obj
 0002:00006f4c       ??_C@_0BH@KPDMNKOM@too?5many?5columns?5on?5?$CFs?$AA@ 100a0f4c     interop.obj
 0002:00006f64       ??_C@_0BK@CJJKBEHE@duplicate?5column?5name?3?5?$CFs?$AA@ 100a0f64     interop.obj
 0002:00006f80       ??_C@_0CN@MLPCOIJO@default?5value?5of?5column?5?$FL?$CFs?$FN?5is?5@ 100a0f80     interop.obj
 0002:00006fb0       ??_C@_0CJ@LEOOFHMA@table?5?$CC?$CFs?$CC?5has?5more?5than?5one?5pri@ 100a0fb0     interop.obj
 0002:00006fdc       ??_C@_07EHCIHKNF@INTEGER?$AA@ 100a0fdc     interop.obj
 0002:00006fe4       ??_C@_0DI@IAIBDBA@AUTOINCREMENT?5is?5only?5allowed?5on@ 100a0fe4     interop.obj
 0002:0000701c       ??_C@_0BP@CGLMEPGG@no?5such?5collation?5sequence?3?5?$CFs?$AA@ 100a101c     interop.obj
 0002:0000703c       ??_C@_01IHBHIGKO@?0?$AA@   100a103c     interop.obj
 0002:00007040       ??_C@_01PKGAHCOL@?$CJ?$AA@ 100a1040     interop.obj
 0002:00007044       ??_C@_03BMMPKCMF@?6?5?5?$AA@ 100a1044     interop.obj
 0002:00007048       ??_C@_04PPJIEIMB@?0?6?5?5?$AA@ 100a1048     interop.obj
 0002:00007050       ??_C@_02EJGPDMNA@?6?$CJ?$AA@ 100a1050     interop.obj
 0002:00007054       ??_C@_0O@BLHKEBID@CREATE?5TABLE?5?$AA@ 100a1054     interop.obj
 0002:00007064       ??_C@_05LCLENNFI@table?$AA@ 100a1064     interop.obj
 0002:0000706c       ??_C@_05HJCCDKBG@TABLE?$AA@ 100a106c     interop.obj
 0002:00007074       ??_C@_04CHADEDPO@view?$AA@ 100a1074     interop.obj
 0002:0000707c       ??_C@_04OLDJKBIG@VIEW?$AA@ 100a107c     interop.obj
 0002:00007084       ??_C@_0P@BPBAOJCC@CREATE?5?$CFs?5?$CF?4?$CKs?$AA@ 100a1084     interop.obj
 0002:00007098       ??_C@_0FH@BLIGLCKI@UPDATE?5?$CFQ?4?$CFs?5SET?5type?$DN?8?$CFs?8?0?5name@ 100a1098     interop.obj
 0002:000070f0       ??_C@_0CK@BLJIJAMD@CREATE?5TABLE?5?$CFQ?4sqlite_sequence?$CI@ 100a10f0     interop.obj
 0002:0000711c       ??_C@_0O@LAHPKCHN@tbl_name?$DN?8?$CFq?8?$AA@ 100a111c     interop.obj
 0002:0000712c       ??_C@_0CE@HIMMFEMD@parameters?5are?5not?5allowed?5in?5vi@ 100a112c     interop.obj
 0002:00007150       ??_C@_0BO@BLAOKNKN@view?5?$CFs?5is?5circularly?5defined?$AA@ 100a1150     interop.obj
 0002:00007170       ??_C@_0DI@GKCMDFKF@UPDATE?5?$CFQ?4?$CFs?5SET?5rootpage?$DN?$CFd?5WHE@ 100a1170     interop.obj
 0002:000071a8       ??_C@_0O@IOJCPKAP@sqlite_stat?$CFd?$AA@ 100a11a8     interop.obj
 0002:000071b8       ??_C@_0CN@DKDOKGOO@DELETE?5FROM?5?$CFQ?4sqlite_sequence?5W@ 100a11b8     interop.obj
 0002:000071e8       ??_C@_0DI@FOLLFOLB@DELETE?5FROM?5?$CFQ?4?$CFs?5WHERE?5tbl_name@ 100a11e8     interop.obj
 0002:00007220       ??_C@_0M@IHGMMCJN@sqlite_stat?$AA@ 100a1220     interop.obj
 0002:0000722c       ??_C@_0BM@JEGMLIGC@table?5?$CFs?5may?5not?5be?5dropped?$AA@ 100a122c     interop.obj
 0002:00007248       ??_C@_0CC@HNNEDPB@use?5DROP?5TABLE?5to?5delete?5table?5?$CF@ 100a1248     interop.obj
 0002:0000726c       ??_C@_0CA@FJIHAAAA@use?5DROP?5VIEW?5to?5delete?5view?5?$CFs?$AA@ 100a126c     interop.obj
 0002:0000728c       ??_C@_0DP@HFDIOLMB@foreign?5key?5on?5?$CFs?5should?5referen@ 100a128c     interop.obj
 0002:000072d0       ??_C@_0FO@BDBBNOLJ@number?5of?5columns?5in?5foreign?5key@ 100a12d0     interop.obj
 0002:00007330       ??_C@_0CO@ECJPGOGF@unknown?5column?5?$CC?$CFs?$CC?5in?5foreign?5k@ 100a1330     interop.obj
 0002:00007360       ??_C@_0BP@NPACMCHA@indexed?5columns?5are?5not?5unique?$AA@ 100a1360     interop.obj
 0002:00007380       ??_C@_05FKHKFDID@index?$AA@ 100a1380     interop.obj
 0002:00007388       ??_C@_09NGMBFCCJ@altertab_?$AA@ 100a1388     interop.obj
 0002:00007394       ??_C@_0BM@KIGEJLNH@table?5?$CFs?5may?5not?5be?5indexed?$AA@ 100a1394     interop.obj
 0002:000073b0       ??_C@_0BJ@CFGNJLOC@views?5may?5not?5be?5indexed?$AA@ 100a13b0     interop.obj
 0002:000073cc       ??_C@_0CC@FKDNLIPM@virtual?5tables?5may?5not?5be?5indexe@ 100a13cc     interop.obj
 0002:000073f0       ??_C@_0CC@CKJEJGLG@there?5is?5already?5a?5table?5named?5?$CF@ 100a13f0     interop.obj
 0002:00007414       ??_C@_0BI@HPCDPJFN@index?5?$CFs?5already?5exists?$AA@ 100a1414     interop.obj
 0002:0000742c       ??_C@_0BH@HCCALECK@sqlite_autoindex_?$CFs_?$CFd?$AA@ 100a142c     interop.obj
 0002:00007444       ??_C@_0CA@MKEFOFFD@table?5?$CFs?5has?5no?5column?5named?5?$CFs?$AA@ 100a1444     interop.obj
 0002:00007464       ??_C@_06FJHKNKMG@BINARY?$AA@ 100a1464     interop.obj
 0002:0000746c       ??_C@_0CK@BPKJMBLB@conflicting?5ON?5CONFLICT?5clauses?5@ 100a146c     interop.obj
 0002:00007498       ??_C@_07OGDPOKCI@?5UNIQUE?$AA@ 100a1498     interop.obj
 0002:000074a0       ??_C@_0BE@NHCJMGDI@CREATE?$CFs?5INDEX?5?$CF?4?$CKs?$AA@ 100a14a0     interop.obj
 0002:000074b4       ??_C@_0DA@DLDDDEKN@INSERT?5INTO?5?$CFQ?4?$CFs?5VALUES?$CI?8index?8@ 100a14b4     interop.obj
 0002:000074e4       ??_C@_0BL@CHCJOOMG@name?$DN?8?$CFq?8?5AND?5type?$DN?8index?8?$AA@ 100a14e4     interop.obj
 0002:00007500       ??_C@_0BC@JBPCAJCH@no?5such?5index?3?5?$CFS?$AA@ 100a1500     interop.obj
 0002:00007518       ??_C@_0EJ@MFMNFJHB@index?5associated?5with?5UNIQUE?5or?5@ 100a1518     interop.obj
 0002:00007564       ??_C@_0DB@DNHAJCKG@DELETE?5FROM?5?$CFQ?4?$CFs?5WHERE?5name?$DN?$CFQ?5@ 100a1564     interop.obj
 0002:00007598       ??_C@_02BFICIOJL@ON?$AA@   100a1598     interop.obj
 0002:0000759c       ??_C@_05EOONBMLM@USING?$AA@ 100a159c     interop.obj
 0002:000075a4       ??_C@_0CE@GFPKLECD@a?5JOIN?5clause?5is?5required?5before@ 100a15a4     interop.obj
 0002:000075c8       ??_C@_05ILMMJGEC@BEGIN?$AA@ 100a15c8     interop.obj
 0002:000075d0       ??_C@_06IBPPMFNL@COMMIT?$AA@ 100a15d0     interop.obj
 0002:000075d8       ??_C@_08COBEBGNM@ROLLBACK?$AA@ 100a15d8     interop.obj
 0002:000075e8       ??_C@_0EG@GIEOJFED@unable?5to?5open?5a?5temporary?5datab@ 100a15e8     interop.obj
 0002:00007630       ??_C@_0CO@PMBDNHDC@unable?5to?5identify?5the?5object?5to@ 100a1630     interop.obj
 0002:00007660       ??_C@_0BN@GLMOOAMK@table?5?$CFs?5may?5not?5be?5modified?$AA@ 100a1660     interop.obj
 0002:00007680       ??_C@_0CG@CNPJIJGN@cannot?5modify?5?$CFs?5because?5it?5is?5a@ 100a1680     interop.obj
 0002:000076a8       ??_C@_0N@DAGIBCDP@rows?5deleted?$AA@ 100a16a8     interop.obj
 0002:000076b8       ??_C@_04CIMGMMMG@text?$AA@ 100a16b8     interop.obj
 0002:000076c0       ??_C@_04LPJPOBEM@blob?$AA@ 100a16c0     interop.obj
 0002:000076c8       ??_C@_0BB@KBEKGHFK@integer?5overflow?$AA@ 100a16c8     interop.obj
 0002:000076dc       ??_C@_04HGGMHPIM@?$CF?4?$CKf?$AA@ 100a16dc     interop.obj
 0002:000076e4       ??_C@_0CB@LFIMBCA@LIKE?5or?5GLOB?5pattern?5too?5complex@ 100a16e4     interop.obj
 0002:00007708       ??_C@_0CN@PAMOLCDH@ESCAPE?5expression?5must?5be?5a?5sing@ 100a1708     interop.obj
 0002:00007738       ??_C@_06CLNEDLBE@?$CF?$CB?420e?$AA@ 100a1738     interop.obj
 0002:00007740       ??_C@_04BBKKAMHH@?$DP000?$AA@ 100a1740     interop.obj
 0002:00007748       ??_C@_05JGHLFIHG@MATCH?$AA@ 100a1748     interop.obj
 0002:00007750       ??_C@_04HPDJJBAE@like?$AA@ 100a1750     interop.obj
 0002:00007758       ??_C@_04HHHPGODM@glob?$AA@ 100a1758     interop.obj
 0002:00007760       ??_C@_0BF@PMNMLNEK@foreign?5key?5mismatch?$AA@ 100a1760     interop.obj
 0002:00007778       ??_C@_03PLGJJJLK@oid?$AA@  100a1778     interop.obj
 0002:0000777c       ??_C@_0DE@HLHNLKJ@table?5?$CFS?5has?5?$CFd?5columns?5but?5?$CFd?5v@ 100a177c     interop.obj
 0002:000077b0       ??_C@_0BJ@IABIHKKK@?$CFd?5values?5for?5?$CFd?5columns?$AA@ 100a17b0     interop.obj
 0002:000077cc       ??_C@_0CA@HKGLKLIP@table?5?$CFS?5has?5no?5column?5named?5?$CFs?$AA@ 100a17cc     interop.obj
 0002:000077ec       ??_C@_0O@OMFDFDMH@rows?5inserted?$AA@ 100a17ec     interop.obj
 0002:000077fc       ??_C@_0BG@OAHBMIAD@?$CFs?4?$CFs?5may?5not?5be?5NULL?$AA@ 100a17fc     interop.obj
 0002:00007814       ??_C@_0BF@PCAEONAJ@constraint?5?$CFs?5failed?$AA@ 100a1814     interop.obj
 0002:0000782c       ??_C@_0BL@MIGFAHKG@PRIMARY?5KEY?5must?5be?5unique?$AA@ 100a182c     interop.obj
 0002:00007848       ??_C@_08BLECJPKD@columns?5?$AA@ 100a1848     interop.obj
 0002:00007854       ??_C@_07OJMCPGAK@column?5?$AA@ 100a1854     interop.obj
 0002:0000785c       ??_C@_02KEGNLNML@?0?5?$AA@ 100a185c     interop.obj
 0002:00007860       ??_C@_0BA@IJKPAPH@?5are?5not?5unique?$AA@ 100a1860     interop.obj
 0002:00007870       ??_C@_0P@GKKFBNCL@?5is?5not?5unique?$AA@ 100a1870     interop.obj
 0002:00007880       ??_C@_0BH@NNAEMFED@sqlite3_extension_init?$AA@ 100a1880     interop.obj
 0002:00007898       ??_C@_0CD@FENJJFPL@unable?5to?5open?5shared?5library?5?$FL?$CF@ 100a1898     interop.obj
 0002:000078bc       ??_C@_0CL@IHPFGADB@no?5entry?5point?5?$FL?$CFs?$FN?5in?5shared?5li@ 100a18bc     interop.obj
 0002:000078e8       ??_C@_0CA@BPLHPOIJ@error?5during?5initialization?3?5?$CFs?$AA@ 100a18e8     interop.obj
 0002:00007908       ??_C@_0CH@EKKEGGML@automatic?5extension?5loading?5fail@ 100a1908     interop.obj
 0002:00007930       ??_C@_09JJPHINFN@exclusive?$AA@ 100a1930     interop.obj
 0002:0000793c       ??_C@_06IKLLLDHL@normal?$AA@ 100a193c     interop.obj
 0002:00007944       ??_C@_04CGFJFPFD@none?$AA@ 100a1944     interop.obj
 0002:0000794c       ??_C@_04PLMLMMEO@full?$AA@ 100a194c     interop.obj
 0002:00007954       ??_C@_0M@LPKHOAFP@incremental?$AA@ 100a1954     interop.obj
 0002:00007960       ??_C@_04DAMGJPCA@file?$AA@ 100a1960     interop.obj
 0002:00007968       ??_C@_06HLKELJGF@memory?$AA@ 100a1968     interop.obj
 0002:00007970       ??_C@_0DO@MAKCDDCJ@temporary?5storage?5cannot?5be?5chan@ 100a1970     interop.obj
 0002:000079b0       ??_C@_08NNDOPPOM@SET?5NULL?$AA@ 100a19b0     interop.obj
 0002:000079bc       ??_C@_0M@GCMLNHF@SET?5DEFAULT?$AA@ 100a19bc     interop.obj
 0002:000079c8       ??_C@_07JDMPGCJB@CASCADE?$AA@ 100a19c8     interop.obj
 0002:000079d0       ??_C@_08KJMJNHDG@RESTRICT?$AA@ 100a19d0     interop.obj
 0002:000079dc       ??_C@_09DBFINONP@NO?5ACTION?$AA@ 100a19dc     interop.obj
 0002:000079e8       ??_C@_03GMLCELFL@?9?$CFT?$AA@ 100a19e8     interop.obj
 0002:000079ec       ??_C@_06KJFADLGN@result?$AA@ 100a19ec     interop.obj
 0002:000079f4       ??_C@_0BD@EMJOENCP@default_cache_size?$AA@ 100a19f4     interop.obj
 0002:00007a08       ??_C@_0L@JIGNFOJJ@cache_size?$AA@ 100a1a08     interop.obj
 0002:00007a14       ??_C@_09OGOMKHMG@page_size?$AA@ 100a1a14     interop.obj
 0002:00007a20       ??_C@_0O@CPOJHNIK@secure_delete?$AA@ 100a1a20     interop.obj
 0002:00007a30       ??_C@_0L@OBBCDPFM@page_count?$AA@ 100a1a30     interop.obj
 0002:00007a3c       ??_C@_0P@FMLMLOHD@max_page_count?$AA@ 100a1a3c     interop.obj
 0002:00007a4c       ??_C@_0N@NOOMDJH@locking_mode?$AA@ 100a1a4c     interop.obj
 0002:00007a5c       ??_C@_0N@IPLFJDHP@journal_mode?$AA@ 100a1a5c     interop.obj
 0002:00007a6c       ??_C@_0BD@MCBLCGGI@journal_size_limit?$AA@ 100a1a6c     interop.obj
 0002:00007a80       ??_C@_0M@ENMLGDH@auto_vacuum?$AA@ 100a1a80     interop.obj
 0002:00007a8c       ??_C@_0BD@IEMDKFHA@incremental_vacuum?$AA@ 100a1a8c     interop.obj
 0002:00007aa0       ??_C@_0L@JEPCDDIC@temp_store?$AA@ 100a1aa0     interop.obj
 0002:00007aac       ??_C@_0BF@OPALIJKE@temp_store_directory?$AA@ 100a1aac     interop.obj
 0002:00007ac4       ??_C@_0BJ@INLPNACB@not?5a?5writable?5directory?$AA@ 100a1ac4     interop.obj
 0002:00007ae0       ??_C@_0BF@OGPCDMDP@data_store_directory?$AA@ 100a1ae0     interop.obj
 0002:00007af8       ??_C@_0M@GKGFOGDE@synchronous?$AA@ 100a1af8     interop.obj
 0002:00007b04       ??_C@_0DF@GMDBDCKL@Safety?5level?5may?5not?5be?5changed?5@ 100a1b04     interop.obj
 0002:00007b3c       ??_C@_0L@NEMFJAGM@table_info?$AA@ 100a1b3c     interop.obj
 0002:00007b48       ??_C@_03LBLPCGAC@cid?$AA@  100a1b48     interop.obj
 0002:00007b4c       ??_C@_04MEMAJGDJ@name?$AA@ 100a1b4c     interop.obj
 0002:00007b54       ??_C@_04GPMDFGEJ@type?$AA@ 100a1b54     interop.obj
 0002:00007b5c       ??_C@_07EAJHGOKJ@notnull?$AA@ 100a1b5c     interop.obj
 0002:00007b64       ??_C@_0L@KNDFGGNJ@dflt_value?$AA@ 100a1b64     interop.obj
 0002:00007b70       ??_C@_02NCEGPMNB@pk?$AA@   100a1b70     interop.obj
 0002:00007b74       ??_C@_0L@CKPANNIC@index_info?$AA@ 100a1b74     interop.obj
 0002:00007b80       ??_C@_05OBPGIPLF@seqno?$AA@ 100a1b80     interop.obj
 0002:00007b88       ??_C@_0L@MMBMMAEK@index_list?$AA@ 100a1b88     interop.obj
 0002:00007b94       ??_C@_03NPAJGOON@seq?$AA@  100a1b94     interop.obj
 0002:00007b98       ??_C@_06ODCMFGLL@unique?$AA@ 100a1b98     interop.obj
 0002:00007ba0       ??_C@_0O@EBMNDACF@database_list?$AA@ 100a1ba0     interop.obj
 0002:00007bb0       ??_C@_0P@KOJNIGCH@collation_list?$AA@ 100a1bb0     interop.obj
 0002:00007bc0       ??_C@_0BB@KJMCGNAI@foreign_key_list?$AA@ 100a1bc0     interop.obj
 0002:00007bd4       ??_C@_02EGCJHIOB@id?$AA@   100a1bd4     interop.obj
 0002:00007bd8       ??_C@_04HNEBHLOP@from?$AA@ 100a1bd8     interop.obj
 0002:00007be0       ??_C@_02LBCDJBAJ@to?$AA@   100a1be0     interop.obj
 0002:00007be4       ??_C@_09DFBGJPOA@on_update?$AA@ 100a1be4     interop.obj
 0002:00007bf0       ??_C@_09BILGEHCE@on_delete?$AA@ 100a1bf0     interop.obj
 0002:00007bfc       ??_C@_05FNONLPDI@match?$AA@ 100a1bfc     interop.obj
 0002:00007c04       ??_C@_04OKGDLNCL@NONE?$AA@ 100a1c04     interop.obj
 0002:00007c0c       ??_C@_0BE@LKBHCIHN@case_sensitive_like?$AA@ 100a1c0c     interop.obj
 0002:00007c20       ??_C@_0BA@EDNFHOBJ@integrity_check?$AA@ 100a1c20     interop.obj
 0002:00007c30       ??_C@_0M@EDPCDMIO@quick_check?$AA@ 100a1c30     interop.obj
 0002:00007c3c       ??_C@_0BI@FOLPKNAK@?$CK?$CK?$CK?5in?5database?5?$CFs?5?$CK?$CK?$CK?6?$AA@ 100a1c3c     interop.obj
 0002:00007c54       ??_C@_06DHEAJPAE@rowid?5?$AA@ 100a1c54     interop.obj
 0002:00007c5c       ??_C@_0BF@JGBLFHJL@?5missing?5from?5index?5?$AA@ 100a1c5c     interop.obj
 0002:00007c74       ??_C@_0BN@JKHLHJNK@wrong?5?$CD?5of?5entries?5in?5index?5?$AA@ 100a1c74     interop.obj
 0002:00007c94       ??_C@_02MFDMBIJM@ok?$AA@   100a1c94     interop.obj
 0002:00007c98       ??_C@_08MLPGAEIK@encoding?$AA@ 100a1c98     interop.obj
 0002:00007ca4       ??_C@_0BJ@GJBMJNNI@unsupported?5encoding?3?5?$CFs?$AA@ 100a1ca4     interop.obj
 0002:00007cc0       ??_C@_0P@JGMMHBPP@schema_version?$AA@ 100a1cc0     interop.obj
 0002:00007cd0       ??_C@_0N@MPKCHLKL@user_version?$AA@ 100a1cd0     interop.obj
 0002:00007ce0       ??_C@_0P@GDKICNML@freelist_count?$AA@ 100a1ce0     interop.obj
 0002:00007cf0       ??_C@_0BA@CFJEIIDP@compile_options?$AA@ 100a1cf0     interop.obj
 0002:00007d00       ??_C@_0P@DCFGLPDE@compile_option?$AA@ 100a1d00     interop.obj
 0002:00007d10       ??_C@_0P@OLFGCBDE@wal_checkpoint?$AA@ 100a1d10     interop.obj
 0002:00007d20       ??_C@_07LDHOHMPD@restart?$AA@ 100a1d20     interop.obj
 0002:00007d28       ??_C@_04COIEGINH@busy?$AA@ 100a1d28     interop.obj
 0002:00007d30       ??_C@_03MGHMBJCF@log?$AA@  100a1d30     interop.obj
 0002:00007d34       ??_C@_0N@NLAOCFOK@checkpointed?$AA@ 100a1d34     interop.obj
 0002:00007d44       ??_C@_0BD@JPABJEAI@wal_autocheckpoint?$AA@ 100a1d44     interop.obj
 0002:00007d58       ??_C@_0O@ILHLPNHH@shrink_memory?$AA@ 100a1d58     interop.obj
 0002:00007d68       ??_C@_03ICHNJLJF@key?$AA@  100a1d68     interop.obj
 0002:00007d6c       ??_C@_05FMDLBNN@rekey?$AA@ 100a1d6c     interop.obj
 0002:00007d74       ??_C@_06BHJHKMJC@hexkey?$AA@ 100a1d74     interop.obj
 0002:00007d7c       ??_C@_08PCDPBHPP@hexrekey?$AA@ 100a1d7c     interop.obj
 0002:00007d88       ??_C@_0BP@EHGGIFII@malformed?5database?5schema?5?$CI?$CFs?$CJ?$AA@ 100a1d88     interop.obj
 0002:00007da8       ??_C@_07FCJAGJJB@?$CFs?5?9?5?$CFs?$AA@ 100a1da8     interop.obj
 0002:00007db0       ??_C@_0BB@JDJPANJL@invalid?5rootpage?$AA@ 100a1db0     interop.obj
 0002:00007dc4       ??_C@_0BI@FFDCNLCF@unsupported?5file?5format?$AA@ 100a1dc4     interop.obj
 0002:00007ddc       ??_C@_0DH@EMHOBABL@SELECT?5name?0?5rootpage?0?5sql?5FROM?5@ 100a1ddc     interop.obj
 0002:00007e14       ??_C@_0BO@EBFEALBC@database?5schema?5is?5locked?3?5?$CFs?$AA@ 100a1e14     interop.obj
 0002:00007e34       ??_C@_0BD@NDJILONF@statement?5too?5long?$AA@ 100a1e34     interop.obj
 0002:00007e48       ??_C@_0CM@LOMFMKCH@unknown?5or?5unsupported?5join?5type@ 100a1e48     interop.obj
 0002:00007e74       ??_C@_0DH@LJEHIDDA@RIGHT?5and?5FULL?5OUTER?5JOINs?5are?5n@ 100a1e74     interop.obj
 0002:00007eac       ??_C@_0DC@NBGJANJH@a?5NATURAL?5join?5may?5not?5have?5an?5O@ 100a1eac     interop.obj
 0002:00007ee0       ??_C@_0DH@DHMOHNCE@cannot?5have?5both?5ON?5and?5USING?5cl@ 100a1ee0     interop.obj
 0002:00007f18       ??_C@_0EA@LFCKDDII@cannot?5join?5using?5column?5?$CFs?5?9?5co@ 100a1f18     interop.obj
 0002:00007f58       ??_C@_0EI@FMCKEHHB@only?5a?5single?5result?5allowed?5for@ 100a1f58     interop.obj
 0002:00007fa0       ??_C@_09CDPONBKL@UNION?5ALL?$AA@ 100a1fa0     interop.obj
 0002:00007fac       ??_C@_09JBOBNLLF@INTERSECT?$AA@ 100a1fac     interop.obj
 0002:00007fb8       ??_C@_06JFIPMMLD@EXCEPT?$AA@ 100a1fb8     interop.obj
 0002:00007fc0       ??_C@_05GJNJOPB@UNION?$AA@ 100a1fc0     interop.obj
 0002:00007fc8       ??_C@_0BH@JCGMDKCI@USE?5TEMP?5B?9TREE?5FOR?5?$CFs?$AA@ 100a1fc8     interop.obj
 0002:00007fe0       ??_C@_0BD@INMGDFNB@USING?5TEMP?5B?9TREE?5?$AA@ 100a1fe0     interop.obj
 0002:00007ff4       ??_C@_0CF@IFPCHLOK@COMPOUND?5SUBQUERIES?5?$CFd?5AND?5?$CFd?5?$CFs@ 100a1ff4     interop.obj
 0002:0000801c       ??_C@_05KDMKNECD@rowid?$AA@ 100a201c     interop.obj
 0002:00008024       ??_C@_05NNFHCGPF@?$CFs?4?$CFs?$AA@ 100a2024     interop.obj
 0002:0000802c       ??_C@_05HKPGCKL@?$CFs?3?$CFd?$AA@ 100a202c     interop.obj
 0002:00008034       ??_C@_0DA@GPNKNMMI@ORDER?5BY?5clause?5should?5come?5afte@ 100a2034     interop.obj
 0002:00008064       ??_C@_0CN@DDIHOHHL@LIMIT?5clause?5should?5come?5after?5?$CF@ 100a2064     interop.obj
 0002:00008094       ??_C@_0CO@DAHFDIDO@all?5VALUES?5must?5have?5the?5same?5nu@ 100a2094     interop.obj
 0002:000080c8       ??_C@_0FC@CMDCIIHA@SELECTs?5to?5the?5left?5and?5right?5of@ 100a20c8     interop.obj
 0002:0000811c       ??_C@_0BC@EHGCNIF@no?5such?5index?3?5?$CFs?$AA@ 100a211c     interop.obj
 0002:00008130       ??_C@_0BE@EGABPGJI@sqlite_subquery_?$CFp_?$AA@ 100a2130     interop.obj
 0002:00008144       ??_C@_0BC@OFCALFBN@no?5such?5table?3?5?$CFs?$AA@ 100a2144     interop.obj
 0002:00008158       ??_C@_0BE@EGLAAHPP@no?5tables?5specified?$AA@ 100a2158     interop.obj
 0002:0000816c       ??_C@_0BP@JFMLENOH@too?5many?5columns?5in?5result?5set?$AA@ 100a216c     interop.obj
 0002:0000818c       ??_C@_0DD@MKKFPBAF@DISTINCT?5aggregates?5must?5have?5ex@ 100a218c     interop.obj
 0002:000081c0       ??_C@_0BG@JAICCEJG@USING?5COVERING?5INDEX?5?$AA@ 100a21c0     interop.obj
 0002:000081d8       ??_C@_0BN@NKANBDNO@SCAN?5TABLE?5?$CFs?5?$CFs?$CFs?$CI?$HO?$CFd?5rows?$CJ?$AA@ 100a21d8     interop.obj
 0002:000081f8       ??_C@_0CC@DHLFNDIF@too?5many?5terms?5in?5compound?5SELEC@ 100a21f8     interop.obj
 0002:0000821c       ??_C@_08KLFLGHKI@DISTINCT?$AA@ 100a221c     interop.obj
 0002:00008228       ??_C@_08NKEADCLG@GROUP?5BY?$AA@ 100a2228     interop.obj
 0002:00008234       ??_C@_08BKIJJFKP@ORDER?5BY?$AA@ 100a2234     interop.obj
 0002:00008240       ??_C@_0EB@PHGCKHIG@sqlite3_get_table?$CI?$CJ?5called?5with?5@ 100a2240     interop.obj
 0002:00008284       ??_C@_0CO@CGGBEMGD@temporary?5trigger?5may?5not?5have?5q@ 100a2284     interop.obj
 0002:000082b4       ??_C@_07DIDNFGDE@trigger?$AA@ 100a22b4     interop.obj
 0002:000082bc       ??_C@_0CJ@KLDCMPKB@cannot?5create?5triggers?5on?5virtua@ 100a22bc     interop.obj
 0002:000082e8       ??_C@_0BK@IACDKJFA@trigger?5?$CFT?5already?5exists?$AA@ 100a22e8     interop.obj
 0002:00008304       ??_C@_0CG@JAGCNIHD@cannot?5create?5trigger?5on?5system?5@ 100a2304     interop.obj
 0002:0000832c       ??_C@_06BIGAHLBC@BEFORE?$AA@ 100a232c     interop.obj
 0002:00008334       ??_C@_05OHDJMCHE@AFTER?$AA@ 100a2334     interop.obj
 0002:0000833c       ??_C@_0CF@CNPIEMED@cannot?5create?5?$CFs?5trigger?5on?5view@ 100a233c     interop.obj
 0002:00008364       ??_C@_0CO@GJNALGCE@cannot?5create?5INSTEAD?5OF?5trigger@ 100a2364     interop.obj
 0002:00008398       ??_C@_0EA@IJNEMIHP@INSERT?5INTO?5?$CFQ?4?$CFs?5VALUES?$CI?8trigge@ 100a2398     interop.obj
 0002:000083d8       ??_C@_0BN@JFPIJHCG@type?$DN?8trigger?8?5AND?5name?$DN?8?$CFq?8?$AA@ 100a23d8     interop.obj
 0002:000083f8       ??_C@_0BE@ELCABEID@no?5such?5trigger?3?5?$CFS?$AA@ 100a23f8     interop.obj
 0002:0000840c       ??_C@_0O@JKBKLFDA@?9?9?5TRIGGER?5?$CFs?$AA@ 100a240c     interop.obj
 0002:0000841c       ??_C@_0BD@IEIMFPKF@no?5such?5column?3?5?$CFs?$AA@ 100a241c     interop.obj
 0002:00008430       ??_C@_0N@KMEMLEEO@rows?5updated?$AA@ 100a2430     interop.obj
 0002:00008440       ??_C@_07OLKPBLEA@_rowid_?$AA@ 100a2440     interop.obj
 0002:00008448       ??_C@_0CI@CPMJIPOI@cannot?5VACUUM?5from?5within?5a?5tran@ 100a2448     interop.obj
 0002:00008470       ??_C@_0CL@HKLPPLKM@cannot?5VACUUM?5?9?5SQL?5statements?5i@ 100a2470     interop.obj
 0002:0000849c       ??_C@_0CA@LDLCFKGD@ATTACH?5?8?3memory?3?8?5AS?5vacuum_db?$DL?$AA@ 100a249c     interop.obj
 0002:000084bc       ??_C@_0BI@OOHLJPLG@ATTACH?5?8?8?5AS?5vacuum_db?$DL?$AA@ 100a24bc     interop.obj
 0002:000084d4       ??_C@_0CB@NBNOHMDI@PRAGMA?5vacuum_db?4synchronous?$DNOFF@ 100a24d4     interop.obj
 0002:000084f8       ??_C@_06KEOLADBC@BEGIN?$DL?$AA@ 100a24f8     interop.obj
 0002:00008500       ??_C@_0II@FEBAKHNN@SELECT?5?8CREATE?5TABLE?5vacuum_db?4?8@ 100a2500     interop.obj
 0002:00008588       ??_C@_0GI@FEDHFMIE@SELECT?5?8CREATE?5INDEX?5vacuum_db?4?8@ 100a2588     interop.obj
 0002:000085f0       ??_C@_0HG@GKDDPPFI@SELECT?5?8CREATE?5UNIQUE?5INDEX?5vacu@ 100a25f0     interop.obj
 0002:00008668       ??_C@_0LI@KDJAMIMI@SELECT?5?8INSERT?5INTO?5vacuum_db?4?8?5@ 100a2668     interop.obj
 0002:00008720       ??_C@_0HB@CJENIKHO@SELECT?5?8DELETE?5FROM?5vacuum_db?4?8?5@ 100a2720     interop.obj
 0002:00008798       ??_C@_0JL@BNIMKHIL@SELECT?5?8INSERT?5INTO?5vacuum_db?4?8?5@ 100a2798     interop.obj
 0002:00008838       ??_C@_0LI@DFGNFIOM@INSERT?5INTO?5vacuum_db?4sqlite_mas@ 100a2838     interop.obj
 0002:000088f0       ??_C@_0BI@PDMEEOA@CREATE?5VIRTUAL?5TABLE?5?$CFT?$AA@ 100a28f0     interop.obj
 0002:00008908       ??_C@_0FI@IFIJAFLJ@UPDATE?5?$CFQ?4?$CFs?5SET?5type?$DN?8table?8?0?5n@ 100a2908     interop.obj
 0002:00008960       ??_C@_0BL@DGMACLBE@name?$DN?8?$CFq?8?5AND?5type?$DN?8table?8?$AA@ 100a2960     interop.obj
 0002:0000897c       ??_C@_0BO@DEKEKMPI@vtable?5constructor?5failed?3?5?$CFs?$AA@ 100a297c     interop.obj
 0002:0000899c       ??_C@_0CO@NAIIFAKI@vtable?5constructor?5did?5not?5decla@ 100a299c     interop.obj
 0002:000089cc       ??_C@_06JIKFICKK@hidden?$AA@ 100a29cc     interop.obj
 0002:000089d4       ??_C@_07JJJNOAOL@?5hidden?$AA@ 100a29d4     interop.obj
 0002:000089dc       ??_C@_0BD@KBJCCNMM@no?5such?5module?3?5?$CFs?$AA@ 100a29dc     interop.obj
 0002:000089f0       ??_C@_06FHKGKAHE@NOCASE?$AA@ 100a29f0     interop.obj
 0002:000089f8       ??_C@_0L@LOLDMHK@auto?9index?$AA@ 100a29f8     interop.obj
 0002:00008a04       ??_C@_0CO@KDPCLLKJ@table?5?$CFs?3?5xBestIndex?5returned?5an@ 100a2a04     interop.obj
 0002:00008a34       ??_C@_05LFNOAECD@?5AND?5?$AA@ 100a2a34     interop.obj
 0002:00008a3c       ??_C@_02GFKOMOKH@?5?$CI?$AA@ 100a2a3c     interop.obj
 0002:00008a40       ??_C@_01NEMOKFLO@?$DN?$AA@ 100a2a40     interop.obj
 0002:00008a44       ??_C@_01PPODPGHN@?$DO?$AA@ 100a2a44     interop.obj
 0002:00008a48       ??_C@_01MNNFJEPP@?$DM?$AA@ 100a2a48     interop.obj
 0002:00008a4c       ??_C@_06GBNAAIDA@SEARCH?$AA@ 100a2a4c     interop.obj
 0002:00008a54       ??_C@_04NAGNMPFG@SCAN?$AA@ 100a2a54     interop.obj
 0002:00008a5c       ??_C@_0P@OLOBPMPI@?$CFs?5SUBQUERY?5?$CFd?$AA@ 100a2a5c     interop.obj
 0002:00008a6c       ??_C@_0M@EHBHAICN@?$CFs?5TABLE?5?$CFs?$AA@ 100a2a6c     interop.obj
 0002:00008a78       ??_C@_08BNODOOIA@?$CFs?5AS?5?$CFs?$AA@ 100a2a78     interop.obj
 0002:00008a84       ??_C@_09GCJGEEEO@COVERING?5?$AA@ 100a2a84     interop.obj
 0002:00008a90       ??_C@_0L@COIPKBPM@AUTOMATIC?5?$AA@ 100a2a90     interop.obj
 0002:00008a9c       ??_C@_0BJ@EKHJMJEF@?$CFs?5USING?5?$CFs?$CFsINDEX?$CFs?$CFs?$CFs?$AA@ 100a2a9c     interop.obj
 0002:00008ab8       ??_C@_0BN@POCKMKPK@?$CFs?5USING?5INTEGER?5PRIMARY?5KEY?$AA@ 100a2ab8     interop.obj
 0002:00008ad8       ??_C@_0N@DDAPLKI@?$CFs?5?$CIrowid?$DN?$DP?$CJ?$AA@ 100a2ad8     interop.obj
 0002:00008ae8       ??_C@_0BJ@POOJNAFN@?$CFs?5?$CIrowid?$DO?$DP?5AND?5rowid?$DM?$DP?$CJ?$AA@ 100a2ae8     interop.obj
 0002:00008b04       ??_C@_0N@BBIFFEEG@?$CFs?5?$CIrowid?$DO?$DP?$CJ?$AA@ 100a2b04     interop.obj
 0002:00008b14       ??_C@_0N@LLIMJMMN@?$CFs?5?$CIrowid?$DM?$DP?$CJ?$AA@ 100a2b14     interop.obj
 0002:00008b24       ??_C@_0BN@GEIFLGHO@?$CFs?5VIRTUAL?5TABLE?5INDEX?5?$CFd?3?$CFs?$AA@ 100a2b24     interop.obj
 0002:00008b44       ??_C@_0BA@CEKLKPCJ@?$CFs?5?$CI?$HO?$CFlld?5rows?$CJ?$AA@ 100a2b44     interop.obj
 0002:00008b54       ??_C@_0BM@BLDEAGOK@at?5most?5?$CFd?5tables?5in?5a?5join?$AA@ 100a2b54     interop.obj
 0002:00008b70       ??_C@_0BF@CGOICHOE@cannot?5use?5index?3?5?$CFs?$AA@ 100a2b70     interop.obj
 0002:00008b88       ??_C@_0BG@FMAEELCM@parser?5stack?5overflow?$AA@ 100a2b88     interop.obj
 0002:00008ba0       ??_C@_08FAFAADKO@set?5list?$AA@ 100a2ba0     interop.obj
 0002:00008bac       ??_C@_0BI@CBJKLAIG@near?5?$CC?$CFT?$CC?3?5syntax?5error?$AA@ 100a2bac     interop.obj
 0002:00008bc4       ??_C@_0CC@BHLMPGNH@too?5many?5arguments?5on?5function?5?$CF@ 100a2bc4     interop.obj
 0002:00008be8       ??_C@_0FP@BDHEAEAL@qualified?5table?5names?5are?5not?5al@ 100a2be8     interop.obj
 0002:00008c48       ??_C@_0FE@ONDNFGPP@the?5INDEXED?5BY?5clause?5is?5not?5all@ 100a2c48     interop.obj
 0002:00008ca0       ??_C@_0FF@IPEGLKPG@the?5NOT?5INDEXED?5clause?5is?5not?5al@ 100a2ca0     interop.obj
 0002:00008cf8       ??_C@_09NCAJIFEE@interrupt?$AA@ 100a2cf8     interop.obj
 0002:00008d04       ??_C@_0BJ@EMNEDDKJ@unrecognized?5token?3?5?$CC?$CFT?$CC?$AA@ 100a2d04     interop.obj
 0002:00008d20       ??_C@_06HBNONAG@create?$AA@ 100a2d20     interop.obj
 0002:00008d28       ??_C@_04FGEHGIFJ@temp?$AA@ 100a2d28     interop.obj
 0002:00008d30       ??_C@_09CAHPDAG@temporary?$AA@ 100a2d30     interop.obj
 0002:00008d3c       ??_C@_03JBJLGPFL@end?$AA@  100a2d3c     interop.obj
 0002:00008d40       ??_C@_07LFFDKBGI@explain?$AA@ 100a2d40     interop.obj
 0002:00008d48       ??_C@_0DN@JCCBPONH@2012?909?903?515?342?336?5c0d89d4a9752@ 100a2d48     interop.obj
 0002:00008d88       ??_C@_0EE@DHFGJPIC@unable?5to?5close?5due?5to?5unfinaliz@ 100a2d88     interop.obj
 0002:00008dcc       ??_C@_0O@BFJCFAAK@unknown?5error?$AA@ 100a2dcc     interop.obj
 0002:00008ddc       ??_C@_0BG@MJDEINHO@abort?5due?5to?5ROLLBACK?$AA@ 100a2ddc     interop.obj
 0002:00008df4       ??_C@_0DP@BDIELDAF@unable?5to?5delete?1modify?5user?9fun@ 100a2df4     interop.obj
 0002:00008e34       ??_C@_0BF@HAJMIPDB@unknown?5database?3?5?$CFs?$AA@ 100a2e34     interop.obj
 0002:00008e50       ??_C@_0EE@IKACNBHK@unable?5to?5delete?1modify?5collatio@ 100a2e50     interop.obj
 0002:00008e94       ??_C@_09IPAEKDAI@localhost?$AA@ 100a2e94     interop.obj
 0002:00008ea0       ??_C@_0BM@COJKMEBB@invalid?5uri?5authority?3?5?$CF?4?$CKs?$AA@ 100a2ea0     interop.obj
 0002:00008ebc       ??_C@_05BDNCCAMC@cache?$AA@ 100a2ebc     interop.obj
 0002:00008ec4       ??_C@_04GMGOKAFF@mode?$AA@ 100a2ec4     interop.obj
 0002:00008ecc       ??_C@_06EBPNOMLE@access?$AA@ 100a2ecc     interop.obj
 0002:00008ed4       ??_C@_0BE@CEDEHNFE@no?5such?5?$CFs?5mode?3?5?$CFs?$AA@ 100a2ed4     interop.obj
 0002:00008ee8       ??_C@_0BI@PGEAHBFI@?$CFs?5mode?5not?5allowed?3?5?$CFs?$AA@ 100a2ee8     interop.obj
 0002:00008f00       ??_C@_0BA@JNKNNOBA@no?5such?5vfs?3?5?$CFs?$AA@ 100a2f00     interop.obj
 0002:00008f10       ??_C@_05JJHANOIF@RTRIM?$AA@ 100a2f10     interop.obj
 0002:00008f18       ??_C@_04GHJNJNPO@main?$AA@ 100a2f18     interop.obj
 0002:00008f20       ??_C@_0CK@EFFGEIFI@database?5corruption?5at?5line?5?$CFd?5o@ 100a2f20     interop.obj
 0002:00008f4c       ??_C@_0BN@JFEBGPPP@misuse?5at?5line?5?$CFd?5of?5?$FL?$CF?410s?$FN?$AA@ 100a2f4c     interop.obj
 0002:00008f6c       ??_C@_0CH@CFKHNID@cannot?5open?5file?5at?5line?5?$CFd?5of?5?$FL@ 100a2f6c     interop.obj
 0002:00008f94       ??_C@_0BM@OILBPENI@no?5such?5table?5column?3?5?$CFs?4?$CFs?$AA@ 100a2f94     interop.obj
 0002:00008fb0       ??_C@_0CF@JMBAPJDM@DROP?5TABLE?5IF?5EXISTS?5?$CFQ?4?8?$CFq_cont@ 100a2fb0     interop.obj
 0002:00008fd8       ??_C@_0CG@MBAKJBDH@DROP?5TABLE?5IF?5EXISTS?5?$CFQ?4?8?$CFq_segm@ 100a2fd8     interop.obj
 0002:00009000       ??_C@_0CE@ONKNGDLL@DROP?5TABLE?5IF?5EXISTS?5?$CFQ?4?8?$CFq_segd@ 100a3000     interop.obj
 0002:00009024       ??_C@_0CF@IDMMCBAD@DROP?5TABLE?5IF?5EXISTS?5?$CFQ?4?8?$CFq_docs@ 100a3024     interop.obj
 0002:0000904c       ??_C@_0CC@IOIKPJHP@DROP?5TABLE?5IF?5EXISTS?5?$CFQ?4?8?$CFq_stat@ 100a304c     interop.obj
 0002:00009070       ??_C@_08HBMBCGGI@__langid?$AA@ 100a3070     interop.obj
 0002:0000907c       ??_C@_04OHJOFLHH@?$CFQ?0?5?$AA@ 100a307c     interop.obj
 0002:00009084       ??_C@_06ILOMELII@?$CFz?$CFQ?0?5?$AA@ 100a3084     interop.obj
 0002:0000908c       ??_C@_0DG@KNNCMIAK@CREATE?5TABLE?5x?$CI?$CFs?5?$CFQ?5HIDDEN?0?5doc@ 100a308c     interop.obj
 0002:000090c8       ??_C@_0EN@BNJDGKOP@CREATE?5TABLE?5IF?5NOT?5EXISTS?5?$CFQ?4?8?$CF@ 100a30c8     interop.obj
 0002:00009118       ??_C@_0BK@ILPNCKDD@docid?5INTEGER?5PRIMARY?5KEY?$AA@ 100a3118     interop.obj
 0002:00009134       ??_C@_0M@KFIBGJMD@?$CFz?0?5?8c?$CFd?$CFq?8?$AA@ 100a3134     interop.obj
 0002:00009140       ??_C@_0L@FGLBMJMC@?$CFz?0?5langid?$AA@ 100a3140     interop.obj
 0002:0000914c       ??_C@_0CB@GGGOGPJJ@CREATE?5TABLE?5?$CFQ?4?8?$CFq_content?8?$CI?$CFs?$CJ@ 100a314c     interop.obj
 0002:00009170       ??_C@_0EI@JJJNEMPK@CREATE?5TABLE?5?$CFQ?4?8?$CFq_segments?8?$CIbl@ 100a3170     interop.obj
 0002:000091b8       ??_C@_0JJ@EINNGPFL@CREATE?5TABLE?5?$CFQ?4?8?$CFq_segdir?8?$CIleve@ 100a31b8     interop.obj
 0002:00009258       ??_C@_0EE@MDIIHKIJ@CREATE?5TABLE?5?$CFQ?4?8?$CFq_docsize?8?$CIdoc@ 100a3258     interop.obj
 0002:0000929c       ??_C@_0BE@JJENHHFJ@PRAGMA?5?$CFQ?4page_size?$AA@ 100a329c     interop.obj
 0002:000092b0       ??_C@_05KJDOPFGN@docid?$AA@ 100a32b0     interop.obj
 0002:000092b8       ??_C@_0P@LFFPPLAI@?0?$CFs?$CIx?4?8c?$CFd?$CFq?8?$CJ?$AA@ 100a32b8     interop.obj
 0002:000092c8       ??_C@_06CLEJICHF@langid?$AA@ 100a32c8     interop.obj
 0002:000092d0       ??_C@_06HJELONEC@?0?5x?4?$CFQ?$AA@ 100a32d0     interop.obj
 0002:000092d8       ??_C@_08NJPBOKA@?0?5x?4?8?$CFq?8?$AA@ 100a32d8     interop.obj
 0002:000092e4       ??_C@_08KMMJILGO@_content?$AA@ 100a32e4     interop.obj
 0002:000092f0       ??_C@_0BH@DJGBFAID@?5FROM?5?8?$CFq?8?4?8?$CFq?$CFs?8?5AS?5x?$AA@ 100a32f0     interop.obj
 0002:00009308       ??_C@_06INGKMHGE@?0?$CFs?$CI?$DP?$CJ?$AA@ 100a3308     interop.obj
 0002:00009310       ??_C@_03FEMMFMLJ@?0?5?$DP?$AA@ 100a3310     interop.obj
 0002:00009314       ??_C@_0BE@NJEPGLOD@SELECT?5?$CK?5FROM?5?$CFQ?4?$CFQ?$AA@ 100a3314     interop.obj
 0002:00009328       ??_C@_08ENDKEOKI@tokenize?$AA@ 100a3328     interop.obj
 0002:00009334       ??_C@_09OEHDJMHN@matchinfo?$AA@ 100a3334     interop.obj
 0002:00009340       ??_C@_06CHGOAPND@prefix?$AA@ 100a3340     interop.obj
 0002:00009348       ??_C@_08EJNPIMGB@compress?$AA@ 100a3348     interop.obj
 0002:00009354       ??_C@_0L@IEAKODFB@uncompress?$AA@ 100a3354     interop.obj
 0002:00009360       ??_C@_07ICAJMOAO@content?$AA@ 100a3360     interop.obj
 0002:00009368       ??_C@_0L@KCJJAHCF@languageid?$AA@ 100a3368     interop.obj
 0002:00009374       ??_C@_0BL@LDDPBJJP@unrecognized?5parameter?3?5?$CFs?$AA@ 100a3374     interop.obj
 0002:00009390       ??_C@_04GJCOAOPN@fts3?$AA@ 100a3390     interop.obj
 0002:00009398       ??_C@_0BL@LGOAFHOC@unrecognized?5matchinfo?3?5?$CFs?$AA@ 100a3398     interop.obj
 0002:000093b4       ??_C@_03EFEGFOOI@asc?$AA@  100a33b4     interop.obj
 0002:000093b8       ??_C@_04EBPADADD@desc?$AA@ 100a33b8     interop.obj
 0002:000093c0       ??_C@_0BH@DEFIELBN@unrecognized?5order?3?5?$CFs?$AA@ 100a33c0     interop.obj
 0002:000093d8       ??_C@_06MDDCAKGD@simple?$AA@ 100a33d8     interop.obj
 0002:000093e0       ??_C@_0CD@HIKDEBHJ@error?5parsing?5prefix?5parameter?3?5@ 100a33e0     interop.obj
 0002:00009404       ??_C@_0CJ@LIAMDBLK@missing?5?$CFs?5parameter?5in?5fts4?5con@ 100a3404     interop.obj
 0002:00009430       ??_C@_0CG@BMNJKDFD@SELECT?51?5FROM?5?$CFQ?4?8?$CFq_stat?8?5WHERE@ 100a3430     interop.obj
 0002:00009458       ??_C@_04INMKNCEL@DESC?$AA@ 100a3458     interop.obj
 0002:00009460       ??_C@_03EILNJDJE@ASC?$AA@  100a3460     interop.obj
 0002:00009464       ??_C@_0BK@DAHJKJOI@SELECT?5?$CFs?5WHERE?5rowid?5?$DN?5?$DP?$AA@ 100a3464     interop.obj
 0002:00009480       ??_C@_0BM@EFGHBBLP@SELECT?5?$CFs?5ORDER?5BY?5rowid?5?$CFs?$AA@ 100a3480     interop.obj
 0002:0000949c       ??_C@_0BN@HNFGPPAE@illegal?5first?5argument?5to?5?$CFs?$AA@ 100a349c     interop.obj
 0002:000094bc       ??_C@_03GONAGDMJ@?$DMb?$DO?$AA@ 100a34bc     interop.obj
 0002:000094c0       ??_C@_04KPMLOGDO@?$DM?1b?$DO?$AA@ 100a34c0     interop.obj
 0002:000094c8       ??_C@_0L@FNCHOAPK@?$DMb?$DO?4?4?4?$DM?1b?$DO?$AA@ 100a34c8     interop.obj
 0002:000094d4       ??_C@_0DA@BPKHEBAA@wrong?5number?5of?5arguments?5to?5fun@ 100a34d4     interop.obj
 0002:00009504       ??_C@_07NLNCCKKF@snippet?$AA@ 100a3504     interop.obj
 0002:0000950c       ??_C@_07EALNHAIO@offsets?$AA@ 100a350c     interop.obj
 0002:00009514       ??_C@_08GHMAOHAP@optimize?$AA@ 100a3514     interop.obj
 0002:00009520       ??_C@_0BA@OAEHOEOG@Index?5optimized?$AA@ 100a3520     interop.obj
 0002:00009530       ??_C@_0BG@LMCLNKNA@Index?5already?5optimal?$AA@ 100a3530     interop.obj
 0002:00009548       ??_C@_0DF@DCFHAMLC@ALTER?5TABLE?5?$CFQ?4?8?$CFq_content?8?5?5REN@ 100a3548     interop.obj
 0002:00009580       ??_C@_0DF@DCOLKKAO@ALTER?5TABLE?5?$CFQ?4?8?$CFq_docsize?8?5?5REN@ 100a3580     interop.obj
 0002:000095b8       ??_C@_0CP@CGFDJKNC@ALTER?5TABLE?5?$CFQ?4?8?$CFq_stat?8?5?5RENAME@ 100a35b8     interop.obj
 0002:000095e8       ??_C@_0DG@DAAAGDKF@ALTER?5TABLE?5?$CFQ?4?8?$CFq_segments?8?5REN@ 100a35e8     interop.obj
 0002:00009620       ??_C@_0DE@LHKMPNFJ@ALTER?5TABLE?5?$CFQ?4?8?$CFq_segdir?8?5?5?5REN@ 100a3620     interop.obj
 0002:00009654       ??_C@_06EDADNLPO@porter?$AA@ 100a3654     interop.obj
 0002:0000965c       ??_C@_0P@ONNIBBGC@fts3_tokenizer?$AA@ 100a365c     interop.obj
 0002:0000966c       ??_C@_04CGGPJIDK@fts4?$AA@ 100a366c     interop.obj
 0002:00009674       ??_C@_0DB@EJHEBNJJ@wrong?5number?5of?5arguments?5to?5fts@ 100a3674     interop.obj
 0002:000096a8       ??_C@_0DC@EHKCEINM@CREATE?5TABLE?5x?$CIterm?0?5col?0?5docume@ 100a36a8     interop.obj
 0002:000096dc       ??_C@_01NBENCBCI@?$CK?$AA@ 100a36dc     interop.obj
 0002:000096e0       ??_C@_07HLCPNFJI@fts4aux?$AA@ 100a36e0     interop.obj
 0002:000096e8       ??_C@_02FCBLNKNB@ss?$AA@   100a36e8     interop.obj
 0002:000096ec       ??_C@_04NJPCGJPA@sess?$AA@ 100a36ec     interop.obj
 0002:000096f4       ??_C@_01KBJDNOO@i?$AA@     100a36f4     interop.obj
 0002:000096f8       ??_C@_03FNBCPGLE@sei?$AA@  100a36f8     interop.obj
 0002:000096fc       ??_C@_02FGCILAME@ee?$AA@   100a36fc     interop.obj
 0002:00009700       ??_C@_03DMGJNGJO@dee?$AA@  100a3700     interop.obj
 0002:00009704       ??_C@_03IODMNJJN@gni?$AA@  100a3704     interop.obj
 0002:00009708       ??_C@_02FHOKNKPD@de?$AA@   100a3708     interop.obj
 0002:0000970c       ??_C@_03BGFDOPOL@ate?$AA@  100a370c     interop.obj
 0002:00009710       ??_C@_02CPKALMIH@ta?$AA@   100a3710     interop.obj
 0002:00009714       ??_C@_03BGNDLCMN@ble?$AA@  100a3714     interop.obj
 0002:00009718       ??_C@_02BGLIBNIM@lb?$AA@   100a3718     interop.obj
 0002:0000971c       ??_C@_03NJHJOKAO@ize?$AA@  100a371c     interop.obj
 0002:00009720       ??_C@_02ONOHBLIF@zi?$AA@   100a3720     interop.obj
 0002:00009724       ??_C@_07HAPEHOGG@lanoita?$AA@ 100a3724     interop.obj
 0002:0000972c       ??_C@_04MLFEDMFA@tion?$AA@ 100a372c     interop.obj
 0002:00009734       ??_C@_06KEDPLIML@lanoit?$AA@ 100a3734     interop.obj
 0002:0000973c       ??_C@_04OBONJKHE@ence?$AA@ 100a373c     interop.obj
 0002:00009744       ??_C@_04NOKPDMPL@icne?$AA@ 100a3744     interop.obj
 0002:0000974c       ??_C@_04BEGNDMLE@ance?$AA@ 100a374c     interop.obj
 0002:00009754       ??_C@_04LKMDPJPP@icna?$AA@ 100a3754     interop.obj
 0002:0000975c       ??_C@_04FLGOIBBE@rezi?$AA@ 100a375c     interop.obj
 0002:00009764       ??_C@_04IBMNHKNC@igol?$AA@ 100a3764     interop.obj
 0002:0000976c       ??_C@_03IOJDKDAL@ilb?$AA@  100a376c     interop.obj
 0002:00009770       ??_C@_02IAODKDFB@al?$AA@   100a3770     interop.obj
 0002:00009774       ??_C@_04OBCEDNMH@illa?$AA@ 100a3774     interop.obj
 0002:0000977c       ??_C@_03NLFJHNAK@ent?$AA@  100a377c     interop.obj
 0002:00009780       ??_C@_05IDJKNEIB@iltne?$AA@ 100a3780     interop.obj
 0002:00009788       ??_C@_01KGKMHCOC@e?$AA@    100a3788     interop.obj
 0002:0000978c       ??_C@_03MBNCDFMM@ile?$AA@  100a378c     interop.obj
 0002:00009790       ??_C@_03OLNGEHDI@ous?$AA@  100a3790     interop.obj
 0002:00009794       ??_C@_05PENBEICD@ilsuo?$AA@ 100a3794     interop.obj
 0002:0000979c       ??_C@_07GPCIBLIA@noitazi?$AA@ 100a379c     interop.obj
 0002:000097a4       ??_C@_05OJBPCAJ@noita?$AA@ 100a37a4     interop.obj
 0002:000097ac       ??_C@_04PGJEMGHC@rota?$AA@ 100a37ac     interop.obj
 0002:000097b4       ??_C@_05DPCAAIOM@msila?$AA@ 100a37b4     interop.obj
 0002:000097bc       ??_C@_03NAGDBDGK@ive?$AA@  100a37bc     interop.obj
 0002:000097c0       ??_C@_07PDACOIKL@ssenevi?$AA@ 100a37c0     interop.obj
 0002:000097c8       ??_C@_03FLIEAGCM@ful?$AA@  100a37c8     interop.obj
 0002:000097cc       ??_C@_07LNEAFLH@ssenluf?$AA@ 100a37cc     interop.obj
 0002:000097d4       ??_C@_07NCGMPJDH@ssensuo?$AA@ 100a37d4     interop.obj
 0002:000097dc       ??_C@_05BGJBJGOK@itila?$AA@ 100a37dc     interop.obj
 0002:000097e4       ??_C@_05MPPJDKEE@itivi?$AA@ 100a37e4     interop.obj
 0002:000097ec       ??_C@_06BJBBMCGN@itilib?$AA@ 100a37ec     interop.obj
 0002:000097f4       ??_C@_02JGIOOCG@ic?$AA@    100a37f4     interop.obj
 0002:000097f8       ??_C@_05GHGCLDEL@etaci?$AA@ 100a37f8     interop.obj
 0002:00009800       ??_C@_05JKGPHDJ@evita?$AA@ 100a3800     interop.obj
 0002:00009808       ??_C@_05NOGDOIPA@ezila?$AA@ 100a3808     interop.obj
 0002:00009810       ??_C@_05NFBEFLNP@itici?$AA@ 100a3810     interop.obj
 0002:00009818       ??_C@_04BICLKHFP@laci?$AA@ 100a3818     interop.obj
 0002:00009820       ??_C@_03MONGAOMC@luf?$AA@  100a3820     interop.obj
 0002:00009824       ??_C@_04ELEHNCGN@ssen?$AA@ 100a3824     interop.obj
 0002:0000982c       ??_C@_05KMPBBIAH@tneme?$AA@ 100a382c     interop.obj
 0002:00009834       ??_C@_04HADJNCPM@tnem?$AA@ 100a3834     interop.obj
 0002:0000983c       ??_C@_03GACFGOOA@tne?$AA@  100a383c     interop.obj
 0002:00009840       ??_C@_03PCPGPMCA@noi?$AA@  100a3840     interop.obj
 0002:00009844       ??_C@_03PNFNLNLI@eta?$AA@  100a3844     interop.obj
 0002:00009848       ??_C@_03HPFCIIAI@iti?$AA@  100a3848     interop.obj
 0002:0000984c       ??_C@_0BH@PMNILKKF@argument?5type?5mismatch?$AA@ 100a384c     interop.obj
 0002:00009864       ??_C@_0BG@CPKCHLPM@unknown?5tokenizer?3?5?$CFs?$AA@ 100a3864     interop.obj
 0002:0000987c       ??_C@_0BC@MIGNHNIC@unknown?5tokenizer?$AA@ 100a387c     interop.obj
 0002:00009890       ??_C@_0CM@CCEIGCNK@DELETE?5FROM?5?$CFQ?4?8?$CFq_content?8?5WHER@ 100a3890     interop.obj
 0002:000098c0       ??_C@_0EE@NIHFGMMI@SELECT?5NOT?5EXISTS?$CISELECT?5docid?5F@ 100a38c0     interop.obj
 0002:00009904       ??_C@_0BM@PEBOBMKF@DELETE?5FROM?5?$CFQ?4?8?$CFq_content?8?$AA@ 100a3904     interop.obj
 0002:00009920       ??_C@_0BN@EILBLEDC@DELETE?5FROM?5?$CFQ?4?8?$CFq_segments?8?$AA@ 100a3920     interop.obj
 0002:00009940       ??_C@_0BL@DOPLACGJ@DELETE?5FROM?5?$CFQ?4?8?$CFq_segdir?8?$AA@ 100a3940     interop.obj
 0002:0000995c       ??_C@_0BM@OLMCMEJK@DELETE?5FROM?5?$CFQ?4?8?$CFq_docsize?8?$AA@ 100a395c     interop.obj
 0002:00009978       ??_C@_0BJ@HOMEFFOK@DELETE?5FROM?5?$CFQ?4?8?$CFq_stat?8?$AA@ 100a3978     interop.obj
 0002:00009994       ??_C@_0BI@EHNAAIOC@SELECT?5?$CFs?5WHERE?5rowid?$DN?$DP?$AA@ 100a3994     interop.obj
 0002:000099b0       ??_C@_0EB@JLFIAJAO@SELECT?5?$CISELECT?5max?$CIidx?$CJ?5FROM?5?$CFQ?4@ 100a39b0     interop.obj
 0002:000099f4       ??_C@_0DL@MFGEIOD@REPLACE?5INTO?5?$CFQ?4?8?$CFq_segments?8?$CIbl@ 100a39f4     interop.obj
 0002:00009a30       ??_C@_0EE@PDNODLPC@SELECT?5coalesce?$CI?$CISELECT?5max?$CIbloc@ 100a3a30     interop.obj
 0002:00009a74       ??_C@_0DA@CMKKFBOL@REPLACE?5INTO?5?$CFQ?4?8?$CFq_segdir?8?5VALU@ 100a3a74     interop.obj
 0002:00009aa8       ??_C@_0HA@JJLMMHPL@SELECT?5idx?0?5start_block?0?5leaves_@ 100a3aa8     interop.obj
 0002:00009b18       ??_C@_0IH@CHFFJLEM@SELECT?5idx?0?5start_block?0?5leaves_@ 100a3b18     interop.obj
 0002:00009ba0       ??_C@_0DE@JFBNLGCM@SELECT?5count?$CI?$CK?$CJ?5FROM?5?$CFQ?4?8?$CFq_segd@ 100a3ba0     interop.obj
 0002:00009bd8       ??_C@_0EC@NJOFEFNB@SELECT?5max?$CIlevel?$CJ?5FROM?5?$CFQ?4?8?$CFq_se@ 100a3bd8     interop.obj
 0002:00009c1c       ??_C@_0CL@LJFNCCFI@DELETE?5FROM?5?$CFQ?4?8?$CFq_segdir?8?5WHERE@ 100a3c1c     interop.obj
 0002:00009c48       ??_C@_0DL@FMDHOPDD@DELETE?5FROM?5?$CFQ?4?8?$CFq_segments?8?5WHE@ 100a3c48     interop.obj
 0002:00009c84       ??_C@_0CH@KOJCNEKB@INSERT?5INTO?5?$CFQ?4?8?$CFq_content?8?5VALU@ 100a3c84     interop.obj
 0002:00009cac       ??_C@_0CM@JNJGJAMO@DELETE?5FROM?5?$CFQ?4?8?$CFq_docsize?8?5WHER@ 100a3cac     interop.obj
 0002:00009cd8       ??_C@_0CJ@LFPHJFLB@REPLACE?5INTO?5?$CFQ?4?8?$CFq_docsize?8?5VAL@ 100a3cd8     interop.obj
 0002:00009d04       ??_C@_0CP@OHAINFIB@SELECT?5size?5FROM?5?$CFQ?4?8?$CFq_docsize?8@ 100a3d04     interop.obj
 0002:00009d34       ??_C@_0CK@NBNCGFLN@SELECT?5value?5FROM?5?$CFQ?4?8?$CFq_stat?8?5W@ 100a3d34     interop.obj
 0002:00009d60       ??_C@_0CG@FNKMPDFF@REPLACE?5INTO?5?$CFQ?4?8?$CFq_stat?8?5VALUES@ 100a3d60     interop.obj
 0002:00009d88       ??_C@_0DH@BCKMOPJL@DELETE?5FROM?5?$CFQ?4?8?$CFq_segdir?8?5WHERE@ 100a3d88     interop.obj
 0002:00009dc0       ??_C@_0DH@FMGMEHPE@SELECT?5DISTINCT?5level?5?1?5?$CI1024?5?$CK?5@ 100a3dc0     interop.obj
 0002:00009df8       ??_C@_0GJ@LOLHDHAJ@SELECT?5level?5FROM?5?$CFQ?4?8?$CFq_segdir?8@ 100a3df8     interop.obj
 0002:00009e68       ??_C@_0GH@DPJIHEGC@SELECT?52?5?$CK?5total?$CI1?5?$CL?5leaves_end_@ 100a3e68     interop.obj
 0002:00009ed0       ??_C@_0DH@DBLDPJEO@DELETE?5FROM?5?$CFQ?4?8?$CFq_segdir?8?5WHERE@ 100a3ed0     interop.obj
 0002:00009f08       ??_C@_0DK@IIIPEDBM@UPDATE?5?$CFQ?4?8?$CFq_segdir?8?5SET?5idx?5?$DN?5@ 100a3f08     interop.obj
 0002:00009f48       ??_C@_0GL@HMGCAOBI@SELECT?5idx?0?5start_block?0?5leaves_@ 100a3f48     interop.obj
 0002:00009fb8       ??_C@_0EP@DBFLEABP@UPDATE?5?$CFQ?4?8?$CFq_segdir?8?5SET?5start_@ 100a3fb8     interop.obj
 0002:0000a008       ??_C@_0EB@INOOLLID@SELECT?51?5FROM?5?$CFQ?4?8?$CFq_segments?8?5W@ 100a4008     interop.obj
 0002:0000a04c       ??_C@_0DM@EICDJEDC@SELECT?5idx?5FROM?5?$CFQ?4?8?$CFq_segdir?8?5W@ 100a404c     interop.obj
 0002:0000a088       ??_C@_0DA@ONAEGFD@SELECT?5max?$CI?5level?5?$CF?$CF?51024?5?$CJ?5FROM@ 100a4088     interop.obj
 0002:0000a0b8       ??_C@_0M@FNPINBNL@?$CFs_segments?$AA@ 100a40b8     interop.obj
 0002:0000a0c4       ??_C@_05PIBOEKAB@block?$AA@ 100a40c4     interop.obj
 0002:0000a0cc       ??_C@_09GMKLHBDP@SELECT?5?$CFs?$AA@ 100a40cc     interop.obj
 0002:0000a0d8       ??_C@_07NPFKDALJ@rebuild?$AA@ 100a40d8     interop.obj
 0002:0000a0e0       ??_C@_0BA@DICCLPBL@integrity?9check?$AA@ 100a40e0     interop.obj
 0002:0000a0f0       ??_C@_06NBNMKOCN@merge?$DN?$AA@ 100a40f0     interop.obj
 0002:0000a0f8       ??_C@_0L@CIJOHFF@automerge?$DN?$AA@ 100a40f8     interop.obj
 0002:0000a104       ??_C@_0P@LDDNGGJP@SAVEPOINT?5fts3?$AA@ 100a4104     interop.obj
 0002:0000a114       ??_C@_0N@MGHAAGPN@RELEASE?5fts3?$AA@ 100a4114     interop.obj
 0002:0000a124       ??_C@_0BB@FILGCGJ@ROLLBACK?5TO?5fts3?$AA@ 100a4124     interop.obj
 0002:0000a138       ??_C@_0CD@HGBIMAPM@unrecognized?5matchinfo?5request?3?5@ 100a4138     interop.obj
 0002:0000a15c       ??_C@_0N@CAAIIPHA@?$CFd?5?$CFd?5?$CFd?5?$CFd?5?$AA@ 100a415c     interop.obj
 0002:0000a16c       ??_C@_03BIPDAGPI@pcx?$AA@  100a416c     interop.obj
 0002:0000a170       ??_C@_0FC@PCOGINLL@DROP?5TABLE?5?8?$CFq?8?4?8?$CFq_node?8?$DLDROP?5T@ 100a4170     interop.obj
 0002:0000a1c8       ??_C@_0JB@OPIDJEFG@ALTER?5TABLE?5?$CFQ?4?8?$CFq_node?8?5?5?5RENAM@ 100a41c8     interop.obj
 0002:0000a260       ??_C@_0BAM@HLINMDBI@CREATE?5TABLE?5?$CC?$CFw?$CC?4?$CC?$CFw_node?$CC?$CInode@ 100a4260     interop.obj
 0002:0000a36c       ??_C@_0DJ@FJHIAAMI@SELECT?5length?$CIdata?$CJ?5FROM?5?8?$CFq?8?4?8?$CF@ 100a436c     interop.obj
 0002:0000a3a8       ??_C@_0CL@JLGEGOKF@Wrong?5number?5of?5columns?5for?5an?5r@ 100a43a8     interop.obj
 0002:0000a3d4       ??_C@_0CD@LNBABDIB@Too?5few?5columns?5for?5an?5rtree?5tab@ 100a43d4     interop.obj
 0002:0000a3f8       ??_C@_0CE@OFDKEPLE@Too?5many?5columns?5for?5an?5rtree?5ta@ 100a43f8     interop.obj
 0002:0000a41c       ??_C@_0BC@EHLBCEFD@CREATE?5TABLE?5x?$CI?$CFs?$AA@ 100a441c     interop.obj
 0002:0000a430       ??_C@_06OMDHIKNA@?$CFs?0?5?$CFs?$AA@ 100a4430     interop.obj
 0002:0000a438       ??_C@_04ECFIDFLD@?$CFs?$CJ?$DL?$AA@ 100a4438     interop.obj
 0002:0000a440       ??_C@_03HDKIMHPH@?5?$CFf?$AA@ 100a4440     interop.obj
 0002:0000a444       ??_C@_07CEKPNMEE@?$CFs?5?$HL?$CFs?$HN?$AA@ 100a4444     interop.obj
 0002:0000a44c       ??_C@_04OMBFFHIC@?$HL?$CFs?$HN?$AA@ 100a444c     interop.obj
 0002:0000a454       ??_C@_0CB@GBDNHMJO@Invalid?5argument?5to?5rtreedepth?$CI?$CJ@ 100a4454     interop.obj
 0002:0000a478       ??_C@_09DOFHOJNE@rtreenode?$AA@ 100a4478     interop.obj
 0002:0000a484       ??_C@_0L@FBAJCMD@rtreedepth?$AA@ 100a4484     interop.obj
 0002:0000a490       ??_C@_05JDCFEKKH@rtree?$AA@ 100a4490     interop.obj
 0002:0000a498       ??_C@_09BLHENEJI@rtree_i32?$AA@ 100a4498     interop.obj
 0002:0000a4a4       ??_C@_0N@HPOBCAGP@domain?5error?$AA@ 100a44a4     interop.obj
 0002:0000a4b8       ??_C@_1FO@GBKEFGLF@?$AAM?$AAi?$AAc?$AAr?$AAo?$AAs?$AAo?$AAf?$AAt?$AA?5?$AAE?$AAn?$AAh?$AAa?$AAn?$AAc?$AAe?$AAd?$AA?5?$AAC?$AAr?$AAy?$AAp?$AAt?$AAo?$AAg?$AAr?$AAa?$AAp?$AAh?$AAi?$AAc@ 100a44b8     interop.obj
 0002:0000a518       ??_C@_0CF@PDNGJJHH@Cryptographic?5provider?5not?5avail@ 100a4518     interop.obj
 0002:0000a540       __real@400921fb54442d18    100a4540      CIL library: CIL module
 0002:0000a548       __real@4066800000000000    100a4548      CIL library: CIL module
 0002:0000a550       __real@3ff0000000000000    100a4550      CIL library: CIL module
 0002:0000a558       __real@3fe0000000000000    100a4558      CIL library: CIL module
 0002:0000a560       __real@0000000000000000    100a4560      CIL library: CIL module
 0002:0000a568       __real@40d3880000000000    100a4568      CIL library: CIL module
 0002:0000a570       __real@4014000000000000    100a4570      CIL library: CIL module
 0002:0000a578       __real@4000000000000000    100a4578      CIL library: CIL module
 0002:0000a580       __real@411e848000000000    100a4580      CIL library: CIL module
 0002:0000a588       __real@4024000000000000    100a4588      CIL library: CIL module
 0002:0000a590       __real@4480f0cf064dd592    100a4590      CIL library: CIL module
 0002:0000a598       __real@7ff0000000000000    100a4598      CIL library: CIL module
 0002:0000a5a0       __real@7fe1ccf385ebc8a0    100a45a0      CIL library: CIL module
 0002:0000a5a8       __real@8000000000000000    100a45a8      CIL library: CIL module
 0002:0000a5b0       __real@4194997000000000    100a45b0      CIL library: CIL module
 0002:0000a5b8       __real@403e99a027525461    100a45b8      CIL library: CIL module
 0002:0000a5c0       __real@4076d40000000000    100a45c0      CIL library: CIL module
 0002:0000a5c8       __real@405e866666666666    100a45c8      CIL library: CIL module
 0002:0000a5d0       __real@40e1d58800000000    100a45d0      CIL library: CIL module
 0002:0000a5d8       __real@413c7dd040000000    100a45d8      CIL library: CIL module
 0002:0000a5e0       __real@c08f400000000000    100a45e0      CIL library: CIL module
 0002:0000a5e8       __real@4097d20000000000    100a45e8      CIL library: CIL module
 0002:0000a5f0       __real@408f400000000000    100a45f0      CIL library: CIL module
 0002:0000a5f8       __real@4048000000000000    100a45f8      CIL library: CIL module
 0002:0000a600       __real@3ff0000020000000    100a4600      CIL library: CIL module
 0002:0000a608       __real@3fefffffc0000000    100a4608      CIL library: CIL module
 0002:0000a610       __real@3e45798ee2308c3a    100a4610      CIL library: CIL module
 0002:0000a618       __real@4197d78400000000    100a4618      CIL library: CIL module
 0002:0000a620       __real@4d384f03e93ff9f5    100a4620      CIL library: CIL module
 0002:0000a628       __real@54b249ad2594c37d    100a4628      CIL library: CIL module
 0002:0000a630       __real@3fb999999999999a    100a4630      CIL library: CIL module
 0002:0000a638       __real@41f0000000000000    100a4638      CIL library: CIL module
 0002:0000a640       __real@413e848000000000    100a4640      CIL library: CIL module
 0002:0000a648       __real@43e0000000000000    100a4648      CIL library: CIL module
 0002:0000a650       __real@4076d00000000000    100a4650      CIL library: CIL module
 0002:0000a658       __real@403e000000000000    100a4658      CIL library: CIL module
 0002:0000a660       __real@40ed4c0000000000    100a4660      CIL library: CIL module
 0002:0000a668       __real@414b774000000000    100a4668      CIL library: CIL module
 0002:0000a670       __real@bfe0000000000000    100a4670      CIL library: CIL module
 0002:0000a678       __real@401c000000000000    100a4678      CIL library: CIL module
 0002:0000a680       __real@3fd0000000000000    100a4680      CIL library: CIL module
 0002:0000a688       __real@404dffdf3b645a1d    100a4688      CIL library: CIL module
 0002:0000a690       __real@4010000000000000    100a4690      CIL library: CIL module
 0002:0000a698       __real@4008000000000000    100a4698      CIL library: CIL module
 0002:0000a6a0       __real@547d42aea2879f2e    100a46a0      CIL library: CIL module
 0002:0000a6a8       __real@546d42aea2879f2e    100a46a8      CIL library: CIL module
 0002:0000a6b0       __real@4059000000000000    100a46b0      CIL library: CIL module
 0002:0000a700       __load_config_used         100a4700     MSVCRT:loadcfg.obj
 0002:00029d10       ___safe_se_handler_table   100c3d10     <linker-defined>
 0002:00029d14       ___rtc_iaa                 100c3d14     MSVCRT:_initsect_.obj
 0002:00029d18       ___rtc_izz                 100c3d18     MSVCRT:_initsect_.obj
 0002:00029d1c       ___rtc_taa                 100c3d1c     MSVCRT:_initsect_.obj
 0002:00029d20       ___rtc_tzz                 100c3d20     MSVCRT:_initsect_.obj
 0002:00029dac       __IMPORT_DESCRIPTOR_KERNEL32 100c3dac     kernel32:KERNEL32.dll
 0002:00029dc0       __IMPORT_DESCRIPTOR_ADVAPI32 100c3dc0     advapi32:ADVAPI32.dll
 0002:00029dd4       __IMPORT_DESCRIPTOR_MSVCR90 100c3dd4     MSVCRT:MSVCR90.dll
 0002:00029de8       __IMPORT_DESCRIPTOR_mscoree 100c3de8     mscoree:mscoree.dll
 0002:00029dfc       __NULL_IMPORT_DESCRIPTOR   100c3dfc     kernel32:KERNEL32.dll
 0003:00000000       ___security_cookie         100c7000     MSVCRT:gs_cookie.obj
 0003:00000004       ___security_cookie_complement 100c7004     MSVCRT:gs_cookie.obj
 0003:00000008       ___native_dllmain_reason   100c7008     MSVCRT:natstart.obj
 0003:0000000c       ___native_vcclrit_reason   100c700c     MSVCRT:natstart.obj
 0003:0000120c       __forceCRTManifestRTM      100c820c     MSVCRT:crtmanifestrtm.obj
 0003:00001210       ?__type_info_root_node@@3U__type_info_node@@A 100c8210     MSVCRT:tncleanup.obj
 0003:00001638       _sqlite3_temp_directory    100c8638     interop.obj
 0003:0000163c       _sqlite3_data_directory    100c863c     interop.obj
 0003:00001640       _g_hProvider               100c8640     interop.obj
 0003:000025fc       ___sse2_available          100c95fc     <common>
 0003:00002600       __adjust_fdiv              100c9600     <common>
 0003:00002604       ___native_startup_state    100c9604     <common>
 0003:00002608       ___native_startup_lock     100c9608     <common>
 0003:0000260c       ___onexitend               100c960c     <common>
 0003:00002610       ___onexitbegin             100c9610     <common>
 0003:00002614       ___dyn_tls_init_callback   100c9614     <common>
 0003:00002620       _winSysInfo                100c9620     <common>

 entry point at        0001:00098dfe

 Static symbols

 0001:00000171       _pre_c_init                10001171 f   MSVCRT:crtdll.obj
 0001:000003e6       ___DllMainCRTStartup       100013e6 f   MSVCRT:crtdll.obj
 0001:00004738       __catch$?System.Data.SQLite.SQLiteCommand.Dispose@@20010102$0 10005738 f    CIL library: CIL module
 0001:00004770       __catch$?System.Data.SQLite.SQLiteCommand.Dispose@@20010102$1 10005770 f    CIL library: CIL module
 0001:000047d9       __catch$?System.Data.SQLite.SQLiteCommand.ClearCommands@@200001$0 100057d9 f    CIL library: CIL module
 0001:0000491e       __catch$?System.Data.SQLite.SQLiteCommand.BuildNextCommand@@2000128104$0 1000591e f    CIL library: CIL module
 0001:00005932       __catch$?System.Data.SQLite.SQLiteConnection.BackupDatabase@@20060112380O0O08125M08$0 10006932 f    CIL library: CIL module
 0001:00005967       __catch$?System.Data.SQLite.SQLiteConnection.BackupDatabase@@20060112380O0O08125M08$1 10006967 f    CIL library: CIL module
 0001:00005f8b       __catch$?System.Data.SQLite.SQLiteConnection.TryParseEnum@@00031M12750O02$0 10006f8b f    CIL library: CIL module
 0001:000066d9       __catch$?System.Data.SQLite.SQLiteConnection.Open@@200001$0 100076d9 f    CIL library: CIL module
 0001:00006774       __catch$?System.Data.SQLite.SQLiteConnection.Open@@200001$1 10007774 f    CIL library: CIL module
 0001:00006783       __catch$?System.Data.SQLite.SQLiteConnection.Open@@200001$2 10007783 f    CIL library: CIL module
 0001:00007ac6       __catch$?System.Data.SQLite.SQLiteConnection.Schema_Columns@@20031280K50O0O0O$0 10008ac6 f    CIL library: CIL module
 0001:00007add       __catch$?System.Data.SQLite.SQLiteConnection.Schema_Columns@@20031280K50O0O0O$1 10008add f    CIL library: CIL module
 0001:00007aeb       __catch$?System.Data.SQLite.SQLiteConnection.Schema_Columns@@20031280K50O0O0O$2 10008aeb f    CIL library: CIL module
 0001:00007af9       __catch$?System.Data.SQLite.SQLiteConnection.Schema_Columns@@20031280K50O0O0O$3 10008af9 f    CIL library: CIL module
 0001:00007b07       __catch$?System.Data.SQLite.SQLiteConnection.Schema_Columns@@20031280K50O0O0O$4 10008b07 f    CIL library: CIL module
 0001:00007b17       __catch$?System.Data.SQLite.SQLiteConnection.Schema_Columns@@20031280K50O0O0O$5 10008b17 f    CIL library: CIL module
 0001:00007b23       __catch$?System.Data.SQLite.SQLiteConnection.Schema_Columns@@20031280K50O0O0O$6 10008b23 f    CIL library: CIL module
 0001:00007fdc       __catch$?System.Data.SQLite.SQLiteConnection.Schema_Indexes@@20031280K50O0O0O$0 10008fdc f    CIL library: CIL module
 0001:00007fea       __catch$?System.Data.SQLite.SQLiteConnection.Schema_Indexes@@20031280K50O0O0O$1 10008fea f    CIL library: CIL module
 0001:00007ff8       __catch$?System.Data.SQLite.SQLiteConnection.Schema_Indexes@@20031280K50O0O0O$2 10008ff8 f    CIL library: CIL module
 0001:00008201       __catch$?System.Data.SQLite.SQLiteConnection.Schema_Indexes@@20031280K50O0O0O$3 10009201 f    CIL library: CIL module
 0001:0000820f       __catch$?System.Data.SQLite.SQLiteConnection.Schema_Indexes@@20031280K50O0O0O$4 1000920f f    CIL library: CIL module
 0001:000082d4       __catch$?System.Data.SQLite.SQLiteConnection.Schema_Indexes@@20031280K50O0O0O$5 100092d4 f    CIL library: CIL module
 0001:000082e2       __catch$?System.Data.SQLite.SQLiteConnection.Schema_Indexes@@20031280K50O0O0O$6 100092e2 f    CIL library: CIL module
 0001:00008307       __catch$?System.Data.SQLite.SQLiteConnection.Schema_Indexes@@20031280K50O0O0O$7 10009307 f    CIL library: CIL module
 0001:00008313       __catch$?System.Data.SQLite.SQLiteConnection.Schema_Indexes@@20031280K50O0O0O$8 10009313 f    CIL library: CIL module
 0001:00008321       __catch$?System.Data.SQLite.SQLiteConnection.Schema_Indexes@@20031280K50O0O0O$9 10009321 f    CIL library: CIL module
 0001:00008331       __catch$?System.Data.SQLite.SQLiteConnection.Schema_Indexes@@20031280K50O0O0O$10 10009331 f    CIL library: CIL module
 0001:0000833d       __catch$?System.Data.SQLite.SQLiteConnection.Schema_Indexes@@20031280K50O0O0O$11 1000933d f    CIL library: CIL module
 0001:0000920b       __catch$?System.Data.SQLite.SQLiteConnection.Schema_IndexColumns@@20041280K50O0O0O0O$0 1000a20b f    CIL library: CIL module
 0001:00009219       __catch$?System.Data.SQLite.SQLiteConnection.Schema_IndexColumns@@20041280K50O0O0O0O$1 1000a219 f    CIL library: CIL module
 0001:00009227       __catch$?System.Data.SQLite.SQLiteConnection.Schema_IndexColumns@@20041280K50O0O0O0O$2 1000a227 f    CIL library: CIL module
 0001:00009517       __catch$?System.Data.SQLite.SQLiteConnection.Schema_IndexColumns@@20041280K50O0O0O0O$3 1000a517 f    CIL library: CIL module
 0001:00009525       __catch$?System.Data.SQLite.SQLiteConnection.Schema_IndexColumns@@20041280K50O0O0O0O$4 1000a525 f    CIL library: CIL module
 0001:00009533       __catch$?System.Data.SQLite.SQLiteConnection.Schema_IndexColumns@@20041280K50O0O0O0O$5 1000a533 f    CIL library: CIL module
 0001:00009543       __catch$?System.Data.SQLite.SQLiteConnection.Schema_IndexColumns@@20041280K50O0O0O0O$6 1000a543 f    CIL library: CIL module
 0001:0000954f       __catch$?System.Data.SQLite.SQLiteConnection.Schema_IndexColumns@@20041280K50O0O0O0O$7 1000a54f f    CIL library: CIL module
 0001:00009568       __catch$?System.Data.SQLite.SQLiteConnection.Schema_IndexColumns@@20041280K50O0O0O0O$8 1000a568 f    CIL library: CIL module
 0001:00009574       __catch$?System.Data.SQLite.SQLiteConnection.Schema_IndexColumns@@20041280K50O0O0O0O$9 1000a574 f    CIL library: CIL module
 0001:0000a31d       __catch$?System.Data.SQLite.SQLiteConnection.Schema_ForeignKeys@@20031280K50O0O0O$0 1000b31d f    CIL library: CIL module
 0001:0000a329       __catch$?System.Data.SQLite.SQLiteConnection.Schema_ForeignKeys@@20031280K50O0O0O$1 1000b329 f    CIL library: CIL module
 0001:0000a337       __catch$?System.Data.SQLite.SQLiteConnection.Schema_ForeignKeys@@20031280K50O0O0O$2 1000b337 f    CIL library: CIL module
 0001:0000a345       __catch$?System.Data.SQLite.SQLiteConnection.Schema_ForeignKeys@@20031280K50O0O0O$3 1000b345 f    CIL library: CIL module
 0001:0000a355       __catch$?System.Data.SQLite.SQLiteConnection.Schema_ForeignKeys@@20031280K50O0O0O$4 1000b355 f    CIL library: CIL module
 0001:0000a361       __catch$?System.Data.SQLite.SQLiteConnection.Schema_ForeignKeys@@20031280K50O0O0O$5 1000b361 f    CIL library: CIL module
 0001:0000ae12       __catch$?System.Data.SQLite.SQLiteConnectionStringBuilder.Initialize@@2001010O$0 1000be12 f    CIL library: CIL module
 0001:0000bc8a       __catch$?System.Data.SQLite.SQLiteDataReader.Close@@200001$0 1000cc8a f    CIL library: CIL module
 0001:0000bc9a       __catch$?System.Data.SQLite.SQLiteDataReader.Close@@200001$1 1000cc9a f    CIL library: CIL module
 0001:0000bcc5       __catch$?System.Data.SQLite.SQLiteDataReader.Close@@200001$2 1000ccc5 f    CIL library: CIL module
 0001:0000bcf0       __catch$?System.Data.SQLite.SQLiteDataReader.Close@@200001$3 1000ccf0 f    CIL library: CIL module
 0001:0000e092       __catch$?System.Data.SQLite.SQLiteFunction.ScalarCallback@@200301180818$0 1000f092 f    CIL library: CIL module
 0001:0000e0c5       __catch$?System.Data.SQLite.SQLiteFunction.ScalarCallback@@200301180818$1 1000f0c5 f    CIL library: CIL module
 0001:0000e125       __catch$?System.Data.SQLite.SQLiteFunction.CompareCallback@@2005081808180818$0 1000f125 f    CIL library: CIL module
 0001:0000e158       __catch$?System.Data.SQLite.SQLiteFunction.CompareCallback@@2005081808180818$1 1000f158 f    CIL library: CIL module
 0001:0000e1cd       __catch$?System.Data.SQLite.SQLiteFunction.CompareCallback16@@2005081808180818$0 1000f1cd f    CIL library: CIL module
 0001:0000e200       __catch$?System.Data.SQLite.SQLiteFunction.CompareCallback16@@2005081808180818$1 1000f200 f    CIL library: CIL module
 0001:0000e2cb       __catch$?System.Data.SQLite.SQLiteFunction.StepCallback@@200301180818$0 1000f2cb f    CIL library: CIL module
 0001:0000e2dc       __catch$?System.Data.SQLite.SQLiteFunction.StepCallback@@200301180818$1 1000f2dc f    CIL library: CIL module
 0001:0000e30f       __catch$?System.Data.SQLite.SQLiteFunction.StepCallback@@200301180818$2 1000f30f f    CIL library: CIL module
 0001:0000e3cc       __catch$?System.Data.SQLite.SQLiteFunction.FinalCallback@@20010118$0 1000f3cc f    CIL library: CIL module
 0001:0000e3df       __catch$?System.Data.SQLite.SQLiteFunction.FinalCallback@@20010118$1 1000f3df f    CIL library: CIL module
 0001:0000e414       __catch$?System.Data.SQLite.SQLiteFunction.FinalCallback@@20010118$2 1000f414 f    CIL library: CIL module
 0001:0000e4fa       __catch$?System.Data.SQLite.SQLiteFunction..cctor@@000001$0 1000f4fa f    CIL library: CIL module
 0001:0000e578       __catch$?System.Data.SQLite.SQLiteFunction..cctor@@000001$1 1000f578 f    CIL library: CIL module
 0001:000117bf       __catch$?System.Data.SQLite.SQLiteTransaction..ctor@@200201123802$0 100127bf f    CIL library: CIL module
 0001:000117cb       __catch$?System.Data.SQLite.SQLiteTransaction..ctor@@200201123802$1 100127cb f    CIL library: CIL module
 0001:000119d7       __catch$?System.Data.SQLite.SQLiteTransaction.IssueRollback@@20010102$0 100129d7 f    CIL library: CIL module
 0001:000119e3       __catch$?System.Data.SQLite.SQLiteTransaction.IssueRollback@@20010102$1 100129e3 f    CIL library: CIL module
 0001:00011c3b       __catch$?System.Data.SQLite.SQLiteConnectionHandle.ReleaseHandle@@200002$0 10012c3b f    CIL library: CIL module
 0001:00011c40       __catch$?System.Data.SQLite.SQLiteConnectionHandle.ReleaseHandle@@200002$1 10012c40 f    CIL library: CIL module
 0001:00011d30       __catch$?System.Data.SQLite.SQLiteStatementHandle.ReleaseHandle@@200002$0 10012d30 f    CIL library: CIL module
 0001:00011d35       __catch$?System.Data.SQLite.SQLiteStatementHandle.ReleaseHandle@@200002$1 10012d35 f    CIL library: CIL module
 0001:00011e24       __catch$?System.Data.SQLite.SQLiteBackupHandle.ReleaseHandle@@200002$0 10012e24 f    CIL library: CIL module
 0001:00011e29       __catch$?System.Data.SQLite.SQLiteBackupHandle.ReleaseHandle@@200002$1 10012e29 f    CIL library: CIL module
 0001:00012310       _InitializeProvider        10013310 f    CIL library: CIL module
 0001:00012350       _sqlite3pager_get_codecarg 10013350 f    CIL library: CIL module
 0001:00012480       _soundex                   10013480 f    CIL library: CIL module
 0001:00012530       _medianIterate             10013530 f    CIL library: CIL module
 0001:000125e0       _modeIterate               100135e0 f    CIL library: CIL module
 0001:000126c0       _rad2deg                   100136c0 f    CIL library: CIL module
 0001:000126e0       _deg2rad                   100136e0 f    CIL library: CIL module
 0001:00012700       _coth                      10013700 f    CIL library: CIL module
 0001:00012710       _cot                       10013710 f    CIL library: CIL module
 0001:00012720       _atanh                     10013720 f    CIL library: CIL module
 0001:00012740       _asinh                     10013740 f    CIL library: CIL module
 0001:00012760       _acosh                     10013760 f    CIL library: CIL module
 0001:00012780       _sqlite3ReadUtf8           10013780 f    CIL library: CIL module
 0001:00012800       _SortByDimension           10013800 f    CIL library: CIL module
 0001:000129a0       _SortByDistance            100139a0 f    CIL library: CIL module
 0001:00012a90       _cellOverlap               10013a90 f    CIL library: CIL module
 0001:00012b50       _cellContains              10013b50 f    CIL library: CIL module
 0001:00012be0       _cellUnion                 10013be0 f    CIL library: CIL module
 0001:00012cb0       _cellMargin                10013cb0 f    CIL library: CIL module
 0001:00012cf0       _cellArea                  10013cf0 f    CIL library: CIL module
 0001:00012d30       _testRtreeGeom             10013d30 f    CIL library: CIL module
 0001:00012de0       _rtreeEof                  10013de0 f    CIL library: CIL module
 0001:00012df0       _rtreeReference            10013df0 f    CIL library: CIL module
 0001:00012e00       _nodeHash                  10013e00 f    CIL library: CIL module
 0001:00012e70       _nodeZero                  10013e70 f    CIL library: CIL module
 0001:00012e90       _nodeReference             10013e90 f    CIL library: CIL module
 0001:00012ea0       _writeInt64                10013ea0 f    CIL library: CIL module
 0001:00012f10       _writeCoord                10013f10 f    CIL library: CIL module
 0001:00012f40       _writeInt16                10013f40 f    CIL library: CIL module
 0001:00012f50       _readInt64                 10013f50 f    CIL library: CIL module
 0001:00013020       _readCoord                 10014020 f    CIL library: CIL module
 0001:00013050       _readInt16                 10014050 f    CIL library: CIL module
 0001:00013060       _fts3MatchinfoLcsCb        10014060 f    CIL library: CIL module
 0001:00013080       _fts3MatchinfoSize         10014080 f    CIL library: CIL module
 0001:000130d0       _fts3ColumnlistCount       100140d0 f    CIL library: CIL module
 0001:00013110       _fts3ExprPhraseCountCb     10014110 f    CIL library: CIL module
 0001:00013120       _fts3ExprLoadDoclistsCb    10014120 f    CIL library: CIL module
 0001:00013140       _fts3ExprIterate2          10014140 f    CIL library: CIL module
 0001:000131b0       _fts3ChecksumEntry         100141b0 f    CIL library: CIL module
 0001:00013260       _fts3Getint                10014260 f    CIL library: CIL module
 0001:00013290       _fts3TermCmp               10014290 f    CIL library: CIL module
 0001:00013310       _sqlite3Fts3MsrIncrRestart 10014310 f    CIL library: CIL module
 0001:00013350       _fts3PrefixCompress        10014350 f    CIL library: CIL module
 0001:00013370       _fts3SegReaderSort         10014370 f    CIL library: CIL module
 0001:000133c0       _fts3SegReaderTermCmp      100143c0 f    CIL library: CIL module
 0001:000134d0       _fts3SegReaderDoclistCmpRev 100144d0 f    CIL library: CIL module
 0001:00013530       _fts3SegReaderDoclistCmp   10014530 f    CIL library: CIL module
 0001:00013590       _fts3SegReaderCmp          10014590 f    CIL library: CIL module
 0001:00013680       _fts3CompareElemByTerm     10014680 f    CIL library: CIL module
 0001:00013720       _getAbsoluteLevel          10014720 f    CIL library: CIL module
 0001:00013760       _sqlite3Fts3SimpleTokenizerModule 10014760 f    CIL library: CIL module
 0001:00013770       _fts3_isalnum              10014770 f    CIL library: CIL module
 0001:000137a0       _simpleDelim               100147a0 f    CIL library: CIL module
 0001:000137c0       _sqlite3Fts3IsIdChar       100147c0 f    CIL library: CIL module
 0001:000137e0       _sqlite3Fts3PorterTokenizerModule 100147e0 f    CIL library: CIL module
 0001:000137f0       _copy_stemmer              100147f0 f    CIL library: CIL module
 0001:00013880       _stem                      10014880 f    CIL library: CIL module
 0001:000138d0       _isConsonant               100148d0 f    CIL library: CIL module
 0001:00013910       _fts3HashInsertElement     10014910 f    CIL library: CIL module
 0001:00013960       _fts3BinCompare            10014960 f    CIL library: CIL module
 0001:000139f0       _fts3BinHash               100149f0 f    CIL library: CIL module
 0001:00013a20       _fts3StrCompare            10014a20 f    CIL library: CIL module
 0001:00013a50       _fts3StrHash               10014a50 f    CIL library: CIL module
 0001:00013a90       _sqlite3Fts3HashInit       10014a90 f    CIL library: CIL module
 0001:00013ab0       _opPrecedence              10014ab0 f    CIL library: CIL module
 0001:00013ad0       _sqlite3Fts3OpenTokenizer  10014ad0 f    CIL library: CIL module
 0001:00013b40       _fts3isspace               10014b40 f    CIL library: CIL module
 0001:00013b70       _fts3auxRowidMethod        10014b70 f    CIL library: CIL module
 0001:00013b90       _fts3auxEofMethod          10014b90 f    CIL library: CIL module
 0001:00013ba0       _fts3auxBestIndexMethod    10014ba0 f    CIL library: CIL module
 0001:00013ca0       _fts3ReleaseMethod         10014ca0 f    CIL library: CIL module
 0001:00013cb0       _fts3ReversePoslist        10014cb0 f    CIL library: CIL module
 0001:00013d00       _fts3CommitMethod          10014d00 f    CIL library: CIL module
 0001:00013d10       _fts3BeginMethod           10014d10 f    CIL library: CIL module
 0001:00013d20       _fts3RowidMethod           10014d20 f    CIL library: CIL module
 0001:00013d40       _fts3EofMethod             10014d40 f    CIL library: CIL module
 0001:00013d50       _fts3ColumnlistCopy        10014d50 f    CIL library: CIL module
 0001:00013db0       _fts3PoslistCopy           10014db0 f    CIL library: CIL module
 0001:00013e10       _fts3BestIndexMethod       10014e10 f    CIL library: CIL module
 0001:00013f30       _fts3GobbleInt             10014f30 f    CIL library: CIL module
 0001:00013f70       _sqlite3Fts3Dequote        10014f70 f    CIL library: CIL module
 0001:00013fd0       _sqlite3Fts3VarintLen      10014fd0 f    CIL library: CIL module
 0001:00013ff0       _sqlite3Fts3GetVarint      10014ff0 f    CIL library: CIL module
 0001:00014080       _sqlite3Fts3PutVarint      10015080 f    CIL library: CIL module
 0001:00014120       _sqlite3TempInMemory       10015120 f    CIL library: CIL module
 0001:00014140       _sqlite3InvokeBusyHandler  10015140 f    CIL library: CIL module
 0001:00014170       _sqlite3ErrStr             10015170 f    CIL library: CIL module
 0001:000141c0       _allSpaces                 100151c0 f    CIL library: CIL module
 0001:00014230       _yy_find_reduce_action     10015230 f    CIL library: CIL module
 0001:00014250       _yy_find_shift_action      10015250 f    CIL library: CIL module
 0001:000142d0       _sqlite3ParserAlloc        100152d0 f    CIL library: CIL module
 0001:000142f0       _spanSet                   100152f0 f    CIL library: CIL module
 0001:00014300       _disableTerm               10015300 f    CIL library: CIL module
 0001:00014340       _estLog                    10015340 f    CIL library: CIL module
 0001:00014380       _transferJoinMarkings      10015380 f    CIL library: CIL module
 0001:000143a0       _operatorMask              100153a0 f    CIL library: CIL module
 0001:000143d0       _allowedOp                 100153d0 f    CIL library: CIL module
 0001:000143f0       _exprSelectTableUsage      100153f0 f    CIL library: CIL module
 0001:000145c0       _createMask                100155c0 f    CIL library: CIL module
 0001:000145d0       _getMask                   100155d0 f    CIL library: CIL module
 0001:00014600       _whereClauseInit           10015600 f    CIL library: CIL module
 0001:00014640       _sqlite3VtabSavepoint      10015640 f    CIL library: CIL module
 0001:000146d0       _sqlite3VtabArgExtend      100156d0 f    CIL library: CIL module
 0001:00014700       _vtabDisconnectAll         10015700 f    CIL library: CIL module
 0001:00014750       _sqlite3GetVTable          10015750 f    CIL library: CIL module
 0001:00014770       _sqlite3VtabLock           10015770 f    CIL library: CIL module
 0001:00014780       _exprWalkNoop              10015780 f    CIL library: CIL module
 0001:00014790       _isSimpleCount             10015790 f    CIL library: CIL module
 0001:000147f0       _substSelect               100157f0 f    CIL library: CIL module
 0001:000149b0       _selectOpName              100159b0 f    CIL library: CIL module
 0001:000149e0       _setJoinExpr               100159e0 f    CIL library: CIL module
 0001:00014a10       _sqlite3SelectDestInit     10015a10 f    CIL library: CIL module
 0001:00014a30       _sqlite3SchemaToIndex      10015a30 f    CIL library: CIL module
 0001:00014a60       _sqlite3ReadSchema         10015a60 f    CIL library: CIL module
 0001:00014a90       _sqlite3JournalModename    10015a90 f    CIL library: CIL module
 0001:00014aa0       _actionName                10015aa0 f    CIL library: CIL module
 0001:00014ae0       _sqlite3SkipAccumulatorLoad 10015ae0 f    CIL library: CIL module
 0001:00014af0       _sqlite3GetFuncCollSeq     10015af0 f    CIL library: CIL module
 0001:00014b00       _matchQuality              10015b00 f    CIL library: CIL module
 0001:00014b50       _sqlite3MayAbort           10015b50 f    CIL library: CIL module
 0001:00014b70       _sqlite3MultiWrite         10015b70 f    CIL library: CIL module
 0001:00014b90       _sqlite3SrcListShiftJoinType 10015b90 f    CIL library: CIL module
 0001:00014bc0       _sqlite3SrcListAssignCursors 10015bc0 f    CIL library: CIL module
 0001:00014c20       _sqlite3DefaultRowEst      10015c20 f    CIL library: CIL module
 0001:00014c70       _sqlite3DeferForeignKey    10015c70 f    CIL library: CIL module
 0001:00014c90       _sqlite3RootPageMoved      10015c90 f    CIL library: CIL module
 0001:00014ce0       _identLength               10015ce0 f    CIL library: CIL module
 0001:00014d00       _sqlite3AffinityType       10015d00 f    CIL library: CIL module
 0001:00014dc0       _sqlite3AddNotNull         10015dc0 f    CIL library: CIL module
 0001:00014df0       _sqlite3CommitInternalChanges 10015df0 f    CIL library: CIL module
 0001:00014e00       _sqlite3BeginParse         10015e00 f    CIL library: CIL module
 0001:00014e20       _sqlite3AuthContextPop     10015e20 f    CIL library: CIL module
 0001:00014e40       _sqlite3AuthContextPush    10015e40 f    CIL library: CIL module
 0001:00014e60       _sqlite3FixExprList        10015e60 f    CIL library: CIL module
 0001:00014ea0       _sqlite3FixExpr            10015ea0 f    CIL library: CIL module
 0001:00014f30       _sqlite3FixSelect          10015f30 f    CIL library: CIL module
 0001:00014fc0       _sqlite3FixInit            10015fc0 f    CIL library: CIL module
 0001:00014ff0       _sqlite3ClearTempRegCache  10015ff0 f    CIL library: CIL module
 0001:00015000       _sqlite3GetTempRange       10016000 f    CIL library: CIL module
 0001:00015030       _sqlite3ReleaseTempReg     10016030 f    CIL library: CIL module
 0001:00015060       _sqlite3GetTempReg         10016060 f    CIL library: CIL module
 0001:00015080       _analyzeAggregatesInSelect 10016080 f    CIL library: CIL module
 0001:00015090       _exprSrcCount              10016090 f    CIL library: CIL module
 0001:000150e0       _sqlite3ExprListCompare    100160e0 f    CIL library: CIL module
 0001:00015160       _sqlite3ExprCompare        10016160 f    CIL library: CIL module
 0001:000152e0       _sqlite3ExprCodeTemp       100162e0 f    CIL library: CIL module
 0001:00015360       _sqlite3ExprCachePinRegister 10016360 f    CIL library: CIL module
 0001:00015380       _sqlite3ExprCachePush      10016380 f    CIL library: CIL module
 0001:00015390       _sqlite3ExprCacheStore     10016390 f    CIL library: CIL module
 0001:00015490       _cacheEntryClear           10016490 f    CIL library: CIL module
 0001:000154c0       _isCandidateForInOpt       100164c0 f    CIL library: CIL module
 0001:00015510       _sqlite3ExprNeedsNoAffinityChange 10016510 f    CIL library: CIL module
 0001:000155d0       _sqlite3ExprCanBeNull      100165d0 f    CIL library: CIL module
 0001:00015600       _sqlite3ExprIsInteger      10016600 f    CIL library: CIL module
 0001:00015680       _selectNodeIsConstant      10016680 f    CIL library: CIL module
 0001:000156a0       _exprNodeIsConstant        100166a0 f    CIL library: CIL module
 0001:00015780       _dupedExprStructSize       10016780 f    CIL library: CIL module
 0001:000157b0       _exprStructSize            100167b0 f    CIL library: CIL module
 0001:000157e0       _exprAlwaysFalse           100167e0 f    CIL library: CIL module
 0001:00015810       _heightOfExpr              10016810 f    CIL library: CIL module
 0001:00015820       _sqlite3ExprSetColl        10016820 f    CIL library: CIL module
 0001:00015840       _sqlite3ExprAffinity       10016840 f    CIL library: CIL module
 0001:000158a0       _incrAggDepth              100168a0 f    CIL library: CIL module
 0001:000158c0       _sqlite3WalkSelectFrom     100168c0 f    CIL library: CIL module
 0001:00015900       _sqlite3WalkExprList       10016900 f    CIL library: CIL module
 0001:00015940       _sqlite3WalkExpr           10016940 f    CIL library: CIL module
 0001:000159e0       _sqlite3MemJournalSize     100169e0 f    CIL library: CIL module
 0001:000159f0       _sqlite3IsMemJournal       100169f0 f    CIL library: CIL module
 0001:00015a00       _sqlite3MemJournalOpen     10016a00 f    CIL library: CIL module
 0001:00015a30       _memjrnlFileSize           10016a30 f    CIL library: CIL module
 0001:00015a50       _memjrnlSync               10016a50 f    CIL library: CIL module
 0001:00015a60       _memjrnlRead               10016a60 f    CIL library: CIL module
 0001:00015b40       _vdbeSorterRowkey          10016b40 f    CIL library: CIL module
 0001:00015b90       _sqlite3VdbeMemStoreType   10016b90 f    CIL library: CIL module
 0001:00015c30       _sqlite3VdbeParameterIndex 10016c30 f    CIL library: CIL module
 0001:00015de0       _sqlite3VdbeSetVarmask     10016de0 f    CIL library: CIL module
 0001:00015e00       _sqlite3VdbeDb             10016e00 f    CIL library: CIL module
 0001:00015e10       _sqlite3ExpirePreparedStatements 10016e10 f    CIL library: CIL module
 0001:00015e30       _sqlite3VdbeCountChanges   10016e30 f    CIL library: CIL module
 0001:00015e40       _sqlite3VdbeSetChanges     10016e40 f    CIL library: CIL module
 0001:00015e50       _sqlite3VdbeSerialTypeLen  10016e50 f    CIL library: CIL module
 0001:00015e70       _sqlite3VdbeSerialType     10016e70 f    CIL library: CIL module
 0001:00015f60       _sqlite3VdbeDeleteAuxData  10016f60 f    CIL library: CIL module
 0001:00015fb0       _sqlite3VdbeResetStepResult 10016fb0 f    CIL library: CIL module
 0001:00015fc0       _sqlite3VdbeFrameRestore   10016fc0 f    CIL library: CIL module
 0001:00016020       _sqlite3VdbeRewind         10017020 f    CIL library: CIL module
 0001:00016060       _allocSpace                10017060 f    CIL library: CIL module
 0001:00016080       _sqlite3VdbeGetOp          10017080 f    CIL library: CIL module
 0001:000160a0       _sqlite3VdbeLinkSubProgram 100170a0 f    CIL library: CIL module
 0001:000160b0       _sqlite3VdbeChangeP5       100170b0 f    CIL library: CIL module
 0001:000160d0       _sqlite3VdbeChangeP3       100170d0 f    CIL library: CIL module
 0001:000160e0       _sqlite3VdbeChangeP2       100170e0 f    CIL library: CIL module
 0001:000160f0       _sqlite3VdbeChangeP1       100170f0 f    CIL library: CIL module
 0001:00016100       _sqlite3VdbeCurrentAddr    10017100 f    CIL library: CIL module
 0001:00016110       _sqlite3VdbeRunOnlyOnce    10017110 f    CIL library: CIL module
 0001:00016120       _sqlite3VdbeResolveLabel   10017120 f    CIL library: CIL module
 0001:00016140       _sqlite3VdbeSwap           10017140 f    CIL library: CIL module
 0001:000161d0       _sqlite3ValueBytes         100171d0 f    CIL library: CIL module
 0001:00016200       _sqlite3VdbeMemTooBig      10017200 f    CIL library: CIL module
 0001:00016230       _doubleToInt64             10017230 f    CIL library: CIL module
 0001:00016290       _sqlite3VdbeMemExpandBlob  10017290 f    CIL library: CIL module
 0001:000162f0       _sqlite3BackupRestart      100172f0 f    CIL library: CIL module
 0001:00016330       _isFatalError              10017330 f    CIL library: CIL module
 0001:00016350       _sqlite3BtreeCursorHints   10017350 f    CIL library: CIL module
 0001:00016360       _sqlite3BtreeIsInBackup    10017360 f    CIL library: CIL module
 0001:00016370       _sqlite3BtreeIsInReadTrans 10017370 f    CIL library: CIL module
 0001:00016380       _sqlite3BtreeIsInTrans     10017380 f    CIL library: CIL module
 0001:000163a0       _setPageReferenced         100173a0 f    CIL library: CIL module
 0001:000163c0       _getPageReferenced         100173c0 f    CIL library: CIL module
 0001:000163e0       _sqlite3BtreePager         100173e0 f    CIL library: CIL module
 0001:000163f0       _assemblePage              100173f0 f    CIL library: CIL module
 0001:000164a0       _sqlite3BtreeEof           100174a0 f    CIL library: CIL module
 0001:000164b0       _sqlite3BtreeGetCachedRowid 100174b0 f    CIL library: CIL module
 0001:000164c0       _sqlite3BtreeSetCachedRowid 100174c0 f    CIL library: CIL module
 0001:000164f0       _sqlite3BtreeCursorZero    100174f0 f    CIL library: CIL module
 0001:00016500       _sqlite3BtreeCursorSize    10017500 f    CIL library: CIL module
 0001:00016510       _sqlite3BtreeGetPageSize   10017510 f    CIL library: CIL module
 0001:00016520       _btreeInvokeBusyHandler    10017520 f    CIL library: CIL module
 0001:00016560       _btreePagecount            10017560 f    CIL library: CIL module
 0001:00016570       _findOverflowCell          10017570 f    CIL library: CIL module
 0001:000165c0       _ptrmapPageno              100175c0 f    CIL library: CIL module
 0001:00016600       _invalidateIncrblobCursors 10017600 f    CIL library: CIL module
 0001:00016640       _downgradeAllSharedCacheTableLocks 10017640 f    CIL library: CIL module
 0001:00016670       _querySharedCacheTableLock 10017670 f    CIL library: CIL module
 0001:000166d0       _sqlite3BtreeSharable      100176d0 f    CIL library: CIL module
 0001:000166e0       _sqlite3WalHeapMemory      100176e0 f    CIL library: CIL module
 0001:00016700       _sqlite3WalCallback        10017700 f    CIL library: CIL module
 0001:00016720       _sqlite3WalSavepoint       10017720 f    CIL library: CIL module
 0001:00016740       _sqlite3WalDbsize          10017740 f    CIL library: CIL module
 0001:00016760       _walPagesize               10017760 f    CIL library: CIL module
 0001:00016780       _walMerge                  10017780 f    CIL library: CIL module
 0001:00016840       _walIteratorNext           10017840 f    CIL library: CIL module
 0001:000168d0       _sqlite3WalLimit           100178d0 f    CIL library: CIL module
 0001:000168f0       _walFramePage              100178f0 f    CIL library: CIL module
 0001:00016900       _walNextHash               10017900 f    CIL library: CIL module
 0001:00016910       _walHash                   10017910 f    CIL library: CIL module
 0001:00016920       _walChecksumBytes          10017920 f    CIL library: CIL module
 0001:000169d0       _walIndexHdr               100179d0 f    CIL library: CIL module
 0001:000169e0       _walCkptInfo               100179e0 f    CIL library: CIL module
 0001:000169f0       _sqlite3PagerCodec         100179f0 f    CIL library: CIL module
 0001:00016a30       _sqlite3PagerWalSupported  10017a30 f    CIL library: CIL module
 0001:00016a50       _sqlite3PagerWalCallback   10017a50 f    CIL library: CIL module
 0001:00016a70       _sqlite3PagerBackupPtr     10017a70 f    CIL library: CIL module
 0001:00016a80       _sqlite3PagerJournalSizeLimit 10017a80 f    CIL library: CIL module
 0001:00016ad0       _sqlite3PagerOkToChangeJournalMode 10017ad0 f    CIL library: CIL module
 0001:00016b00       _sqlite3PagerGetJournalMode 10017b00 f    CIL library: CIL module
 0001:00016b10       _sqlite3PagerLockingMode   10017b10 f    CIL library: CIL module
 0001:00016b40       _sqlite3PagerGetExtra      10017b40 f    CIL library: CIL module
 0001:00016b50       _sqlite3PagerGetData       10017b50 f    CIL library: CIL module
 0001:00016b60       _sqlite3PagerGetCodec      10017b60 f    CIL library: CIL module
 0001:00016b70       _sqlite3PagerNosync        10017b70 f    CIL library: CIL module
 0001:00016b80       _sqlite3PagerJournalname   10017b80 f    CIL library: CIL module
 0001:00016b90       _sqlite3PagerFile          10017b90 f    CIL library: CIL module
 0001:00016ba0       _sqlite3PagerVfs           10017ba0 f    CIL library: CIL module
 0001:00016bb0       _sqlite3PagerFilename      10017bb0 f    CIL library: CIL module
 0001:00016bd0       _sqlite3PagerIsMemdb       10017bd0 f    CIL library: CIL module
 0001:00016be0       _sqlite3PagerCacheStat     10017be0 f    CIL library: CIL module
 0001:00016c00       _sqlite3PagerIsreadonly    10017c00 f    CIL library: CIL module
 0001:00016c10       _sqlite3PagerDontWrite     10017c10 f    CIL library: CIL module
 0001:00016c30       _sqlite3PagerTruncateImage 10017c30 f    CIL library: CIL module
 0001:00016c40       _sqlite3PagerPagecount     10017c40 f    CIL library: CIL module
 0001:00016c50       _sqlite3PagerMaxPageCount  10017c50 f    CIL library: CIL module
 0001:00016c70       _sqlite3PagerTempSpace     10017c70 f    CIL library: CIL module
 0001:00016c80       _sqlite3PagerSetBusyhandler 10017c80 f    CIL library: CIL module
 0001:00016ca0       _sqlite3PagerSetSafetyLevel 10017ca0 f    CIL library: CIL module
 0001:00016d20       _pagerReportSize           10017d20 f    CIL library: CIL module
 0001:00016d50       _pager_cksum               10017d50 f    CIL library: CIL module
 0001:00016dd0       _pager_error               10017dd0 f    CIL library: CIL module
 0001:00016df0       _journalHdrOffset          10017df0 f    CIL library: CIL module
 0001:00016e30       _pagerUseWal               10017e30 f    CIL library: CIL module
 0001:00016e40       _rowSetNDeepTree           10017e40 f    CIL library: CIL module
 0001:00016ea0       _rowSetTreeToList          10017ea0 f    CIL library: CIL module
 0001:00016ef0       _rowSetEntryMerge          10017ef0 f    CIL library: CIL module
 0001:00016f60       _sqlite3RowSetInit         10017f60 f    CIL library: CIL module
 0001:00016f90       _pcache1Shutdown           10017f90 f    CIL library: CIL module
 0001:00016fb0       _pcache1RemoveFromHash     10017fb0 f    CIL library: CIL module
 0001:00016fe0       _pcache1PinPage            10017fe0 f    CIL library: CIL module
 0001:00017040       _sqlite3PCacheBufferSetup  10018040 f    CIL library: CIL module
 0001:000170c0       _sqlite3PcacheShrink       100180c0 f    CIL library: CIL module
 0001:000170d0       _sqlite3PcachePagecount    100180d0 f    CIL library: CIL module
 0001:000170f0       _sqlite3PcachePageRefcount 100180f0 f    CIL library: CIL module
 0001:00017100       _sqlite3PcacheRefCount     10018100 f    CIL library: CIL module
 0001:00017110       _pcacheMergeDirtyList      10018110 f    CIL library: CIL module
 0001:00017180       _sqlite3PcacheClose        10018180 f    CIL library: CIL module
 0001:00017190       _sqlite3PcacheClearSyncFlags 10018190 f    CIL library: CIL module
 0001:000171c0       _sqlite3PcacheRef          100181c0 f    CIL library: CIL module
 0001:000171d0       _numberOfCachePages        100181d0 f    CIL library: CIL module
 0001:00017210       _sqlite3PcacheSetPageSize  10018210 f    CIL library: CIL module
 0001:00017240       _sqlite3PcacheOpen         10018240 f    CIL library: CIL module
 0001:00017280       _sqlite3PcacheSize         10018280 f    CIL library: CIL module
 0001:00017290       _sqlite3PcacheShutdown     10018290 f    CIL library: CIL module
 0001:000172b0       _pcacheUnpin               100182b0 f    CIL library: CIL module
 0001:000172e0       _pcacheAddToDirtyList      100182e0 f    CIL library: CIL module
 0001:00017310       _pcacheRemoveFromDirtyList 10018310 f    CIL library: CIL module
 0001:00017370       _sqlite3BitvecSize         10018370 f    CIL library: CIL module
 0001:00017380       _sqlite3BitvecClear        10018380 f    CIL library: CIL module
 0001:00017450       _sqlite3BitvecTest         10018450 f    CIL library: CIL module
 0001:00017510       _winCurrentTimeInt64       10018510 f    CIL library: CIL module
 0001:00017570       _winRandomness             10018570 f    CIL library: CIL module
 0001:00017610       _winDlClose                10018610 f    CIL library: CIL module
 0001:00017620       _winDlSym                  10018620 f    CIL library: CIL module
 0001:00017640       _winIsVerbatimPathname     10018640 f    CIL library: CIL module
 0001:00017670       _winDeviceCharacteristics  10018670 f    CIL library: CIL module
 0001:00017690       _winSectorSize             10018690 f    CIL library: CIL module
 0001:000176a0       _winModeBit                100186a0 f    CIL library: CIL module
 0001:000176c0       _winMemRoundup             100186c0 f    CIL library: CIL module
 0001:000176d0       _isNT                      100186d0 f    CIL library: CIL module
 0001:000177d0       _winNextSystemCall         100187d0 f    CIL library: CIL module
 0001:00017860       _winGetSystemCall          10018860 f    CIL library: CIL module
 0001:000178d0       _winSetSystemCall          100188d0 f    CIL library: CIL module
 0001:00017980       _sqlite3OpcodeName         10018980 f    CIL library: CIL module
 0001:00017990       _insertElement             10018990 f    CIL library: CIL module
 0001:000179f0       _strHash                   100189f0 f    CIL library: CIL module
 0001:00017a20       _sqlite3HashInit           10018a20 f    CIL library: CIL module
 0001:00017a30       _sqlite3AbsInt32           10018a30 f    CIL library: CIL module
 0001:00017a50       _sqlite3AddInt64           10018a50 f    CIL library: CIL module
 0001:00017ae0       _sqlite3HexToInt           10018ae0 f    CIL library: CIL module
 0001:00017b00       _sqlite3Put4byte           10018b00 f    CIL library: CIL module
 0001:00017b20       _sqlite3Get4byte           10018b20 f    CIL library: CIL module
 0001:00017b40       _sqlite3VarintLen          10018b40 f    CIL library: CIL module
 0001:00017b70       _sqlite3GetVarint          10018b70 f    CIL library: CIL module
 0001:00017cf0       _sqlite3PutVarint          10018cf0 f    CIL library: CIL module
 0001:00017e00       _sqlite3GetInt32           10018e00 f    CIL library: CIL module
 0001:00017ed0       _compare2pow63             10018ed0 f    CIL library: CIL module
 0001:00017f10       _sqlite3AtoF               10018f10 f    CIL library: CIL module
 0001:000184e0       _sqlite3Dequote            100194e0 f    CIL library: CIL module
 0001:00018590       _sqlite3Strlen30           10019590 f    CIL library: CIL module
 0001:000185b0       _sqlite3IsNaN              100195b0 f    CIL library: CIL module
 0001:000185f0       _sqlite3Utf16ByteLen       100195f0 f    CIL library: CIL module
 0001:00018630       _sqlite3Utf8CharLen        10019630 f    CIL library: CIL module
 0001:00018680       _sqlite3VdbeMemHandleBom   10019680 f    CIL library: CIL module
 0001:00018700       _sqlite3Utf8Read           10019700 f    CIL library: CIL module
 0001:00018770       _sqlite3PrngResetState     10019770 f    CIL library: CIL module
 0001:00018780       _sqlite3PrngRestoreState   10019780 f    CIL library: CIL module
 0001:000187a0       _sqlite3PrngSaveState      100197a0 f    CIL library: CIL module
 0001:000187c0       _sqlite3StrAccumInit       100197c0 f    CIL library: CIL module
 0001:000187f0       _et_getdigit               100197f0 f    CIL library: CIL module
 0001:00018820       _sqlite3MallocSize         10019820 f    CIL library: CIL module
 0001:00018830       _isLookaside               10019830 f    CIL library: CIL module
 0001:00018850       _sqlite3MallocEnd          10019850 f    CIL library: CIL module
 0001:000188a0       _sqlite3HeapNearlyFull     100198a0 f    CIL library: CIL module
 0001:000188c0       _winMutexLeave             100198c0 f    CIL library: CIL module
 0001:000188d0       _winMutexTry               100198d0 f    CIL library: CIL module
 0001:000188e0       _winMutexEnter             100198e0 f    CIL library: CIL module
 0001:000188f0       _winMutexEnd               100198f0 f    CIL library: CIL module
 0001:00018940       _winMutexInit              10019940 f    CIL library: CIL module
 0001:000189a0       _noopMutexLeave            100199a0 f    CIL library: CIL module
 0001:000189b0       _noopMutexTry              100199b0 f    CIL library: CIL module
 0001:000189c0       _noopMutexEnter            100199c0 f    CIL library: CIL module
 0001:000189d0       _noopMutexFree             100199d0 f    CIL library: CIL module
 0001:000189e0       _noopMutexAlloc            100199e0 f    CIL library: CIL module
 0001:000189f0       _noopMutexEnd              100199f0 f    CIL library: CIL module
 0001:00018a00       _noopMutexInit             10019a00 f    CIL library: CIL module
 0001:00018a90       _sqlite3MutexAlloc         10019a90 f    CIL library: CIL module
 0001:00018ad0       _sqlite3MutexEnd           10019ad0 f    CIL library: CIL module
 0001:00018ae0       _sqlite3EndBenignMalloc    10019ae0 f    CIL library: CIL module
 0001:00018af0       _sqlite3BeginBenignMalloc  10019af0 f    CIL library: CIL module
 0001:00018b00       _sqlite3BenignMallocHooks  10019b00 f    CIL library: CIL module
 0001:00018b10       _vfsUnlink                 10019b10 f    CIL library: CIL module
 0001:00018c00       _sqlite3OsCurrentTimeInt64 10019c00 f    CIL library: CIL module
 0001:00018c50       _sqlite3OsSleep            10019c50 f    CIL library: CIL module
 0001:00018c60       _sqlite3OsRandomness       10019c60 f    CIL library: CIL module
 0001:00018c70       _sqlite3OsDlClose          10019c70 f    CIL library: CIL module
 0001:00018c80       _sqlite3OsDlSym            10019c80 f    CIL library: CIL module
 0001:00018c90       _sqlite3OsDlError          10019c90 f    CIL library: CIL module
 0001:00018ca0       _sqlite3OsDlOpen           10019ca0 f    CIL library: CIL module
 0001:00018cb0       _sqlite3OsFullPathname     10019cb0 f    CIL library: CIL module
 0001:00018cd0       _sqlite3OsAccess           10019cd0 f    CIL library: CIL module
 0001:00018cf0       _sqlite3OsDelete           10019cf0 f    CIL library: CIL module
 0001:00018d00       _sqlite3OsOpen             10019d00 f    CIL library: CIL module
 0001:00018d20       _sqlite3OsShmMap           10019d20 f    CIL library: CIL module
 0001:00018d40       _sqlite3OsShmUnmap         10019d40 f    CIL library: CIL module
 0001:00018d50       _sqlite3OsShmBarrier       10019d50 f    CIL library: CIL module
 0001:00018d60       _sqlite3OsShmLock          10019d60 f    CIL library: CIL module
 0001:00018d80       _sqlite3OsDeviceCharacteristics 10019d80 f    CIL library: CIL module
 0001:00018d90       _sqlite3OsSectorSize       10019d90 f    CIL library: CIL module
 0001:00018db0       _sqlite3OsFileControlHint  10019db0 f    CIL library: CIL module
 0001:00018dd0       _sqlite3OsFileControl      10019dd0 f    CIL library: CIL module
 0001:00018df0       _sqlite3OsCheckReservedLock 10019df0 f    CIL library: CIL module
 0001:00018e00       _sqlite3OsUnlock           10019e00 f    CIL library: CIL module
 0001:00018e10       _sqlite3OsLock             10019e10 f    CIL library: CIL module
 0001:00018e20       _sqlite3OsFileSize         10019e20 f    CIL library: CIL module
 0001:00018e30       _sqlite3OsSync             10019e30 f    CIL library: CIL module
 0001:00018e40       _sqlite3OsTruncate         10019e40 f    CIL library: CIL module
 0001:00018e60       _sqlite3OsWrite            10019e60 f    CIL library: CIL module
 0001:00018e90       _sqlite3OsRead             10019e90 f    CIL library: CIL module
 0001:00018ec0       _sqlite3OsClose            10019ec0 f    CIL library: CIL module
 0001:00018ee0       _clearYMD_HMS_TZ           10019ee0 f    CIL library: CIL module
 0001:00018ef0       _computeYMD                10019ef0 f    CIL library: CIL module
 0001:00019010       _setDateTimeToCurrent      1001a010 f    CIL library: CIL module
 0001:00019070       _computeJD                 1001a070 f    CIL library: CIL module
 0001:00019190       _getDigits                 1001a190 f    CIL library: CIL module
 0001:00019240       _localtime_s               1001a240 f    CIL library: CIL module
 0001:00019250       _sqlite3StatusSet          1001a250 f    CIL library: CIL module
 0001:00019270       _sqlite3StatusAdd          1001a270 f    CIL library: CIL module
 0001:000192a0       _sqlite3StatusValue        1001a2a0 f    CIL library: CIL module
 0001:000194f0       _DeriveKey                 1001a4f0 f    CIL library: CIL module
 0001:00019660       __substr                   1001a660 f    CIL library: CIL module
 0001:000197a0       _cellGrowth                1001a7a0 f    CIL library: CIL module
 0001:000197f0       _nodeGetCoord              1001a7f0 f    CIL library: CIL module
 0001:00019830       _nodeGetRowid              1001a830 f    CIL library: CIL module
 0001:00019850       _nodeDeleteCell            1001a850 f    CIL library: CIL module
 0001:000198b0       _nodeOverwriteCell         1001a8b0 f    CIL library: CIL module
 0001:00019920       _nodeHashDelete            1001a920 f    CIL library: CIL module
 0001:00019960       _nodeHashInsert            1001a960 f    CIL library: CIL module
 0001:00019980       _nodeHashLookup            1001a980 f    CIL library: CIL module
 0001:000199c0       _fts3LcsIteratorAdvance    1001a9c0 f    CIL library: CIL module
 0001:00019a10       _fts3SnippetShift          1001aa10 f    CIL library: CIL module
 0001:00019be0       _fts3ExprIterate           1001abe0 f    CIL library: CIL module
 0001:00019c00       _fts3StartNode             1001ac00 f    CIL library: CIL module
 0001:00019c40       _fts3DecodeIntArray        1001ac40 f    CIL library: CIL module
 0001:00019c80       _fts3EncodeIntArray        1001ac80 f    CIL library: CIL module
 0001:00019ce0       _fts3TreeFinishNode        1001ace0 f    CIL library: CIL module
 0001:00019d40       _sqlite3Fts3NextToken      1001ad40 f    CIL library: CIL module
 0001:00019e60       _doubleConsonant           1001ae60 f    CIL library: CIL module
 0001:00019ea0       _hasVowel                  1001aea0 f    CIL library: CIL module
 0001:00019ee0       _isVowel                   1001aee0 f    CIL library: CIL module
 0001:00019f40       _ftsCompareFunction        1001af40 f    CIL library: CIL module
 0001:00019f60       _ftsHashFunction           1001af60 f    CIL library: CIL module
 0001:00019f80       _insertBinaryOperator      1001af80 f    CIL library: CIL module
 0001:00019ff0       _sqlite3Fts3DoclistNext    1001aff0 f    CIL library: CIL module
 0001:0001a090       _fts3DoclistCountDocids    1001b090 f    CIL library: CIL module
 0001:0001a0e0       _sqlite3Fts3FirstFilter    1001b0e0 f    CIL library: CIL module
 0001:0001a230       _fts3PutDeltaVarint3       1001b230 f    CIL library: CIL module
 0001:0001a2b0       _fts3GetDeltaVarint3       1001b2b0 f    CIL library: CIL module
 0001:0001a2f0       _fts3PutColNumber          1001b2f0 f    CIL library: CIL module
 0001:0001a340       _fts3PutDeltaVarint        1001b340 f    CIL library: CIL module
 0001:0001a390       _fts3GetReverseVarint      1001b390 f    CIL library: CIL module
 0001:0001a3d0       _fts3GetDeltaVarint        1001b3d0 f    CIL library: CIL module
 0001:0001a400       _sqlite3Fts3GetVarint32    1001b400 f    CIL library: CIL module
 0001:0001a420       _sqlite3DbNameToBtree      1001b420 f    CIL library: CIL module
 0001:0001a8f0       _sqliteDefaultBusyCallback 1001b8f0 f    CIL library: CIL module
 0001:0001a950       _connectionIsBusy          1001b950 f    CIL library: CIL module
 0001:0001a990       _nocaseCollatingFunc       1001b990 f    CIL library: CIL module
 0001:0001a9c0       _binCollFunc               1001b9c0 f    CIL library: CIL module
 0001:0001ad70       _keywordCode               1001bd70 f    CIL library: CIL module
 0001:0001ae00       _isMatchOfColumn           1001be00 f    CIL library: CIL module
 0001:0001ae40       _exprTableUsage            1001be40 f    CIL library: CIL module
 0001:0001af30       _addToVTrans               1001bf30 f    CIL library: CIL module
 0001:0001af50       _sqlite3TriggerList        1001bf50 f    CIL library: CIL module
 0001:0001afd0       _minMaxQuery               1001bfd0 f    CIL library: CIL module
 0001:0001b040       _columnType                1001c040 f    CIL library: CIL module
 0001:0001b210       _columnIndex               1001c210 f    CIL library: CIL module
 0001:0001b280       _getTempStore              1001c280 f    CIL library: CIL module
 0001:0001b2d0       _getLockingMode            1001c2d0 f    CIL library: CIL module
 0001:0001b360       _xferCompatibleCollation   1001c360 f    CIL library: CIL module
 0001:0001b390       _patternCompare            1001c390 f    CIL library: CIL module
 0001:0001b710       _functionSearch            1001c710 f    CIL library: CIL module
 0001:0001b750       _collationMatch            1001c750 f    CIL library: CIL module
 0001:0001b7c0       _sqlite3IdListIndex        1001c7c0 f    CIL library: CIL module
 0001:0001b830       _sqlite3FindDbName         1001c830 f    CIL library: CIL module
 0001:0001b900       _sqlite3FixTriggerStep     1001c900 f    CIL library: CIL module
 0001:0001b980       _sqlite3FunctionUsesThisSrc 1001c980 f    CIL library: CIL module
 0001:0001ba10       _exprCodeBetween           1001ca10 f    CIL library: CIL module
 0001:0001bb30       _sqlite3ExprCacheClear     1001cb30 f    CIL library: CIL module
 0001:0001bb80       _sqlite3ExprCachePop       1001cb80 f    CIL library: CIL module
 0001:0001bbd0       _sqlite3ExprCacheRemove    1001cbd0 f    CIL library: CIL module
 0001:0001bc20       _sqlite3IsRowid            1001cc20 f    CIL library: CIL module
 0001:0001bc60       _exprIsConst               1001cc60 f    CIL library: CIL module
 0001:0001bc90       _dupedExprNodeSize         1001cc90 f    CIL library: CIL module
 0001:0001bd10       _heightOfExprList          1001cd10 f    CIL library: CIL module
 0001:0001bd40       _sqlite3CompareAffinity    1001cd40 f    CIL library: CIL module
 0001:0001bd70       _resolveAsName             1001cd70 f    CIL library: CIL module
 0001:0001be00       _nameInUsingClause         1001ce00 f    CIL library: CIL module
 0001:0001be70       _incrAggFunctionDepth      1001ce70 f    CIL library: CIL module
 0001:0001beb0       _sqlite3WalkSelectExpr     1001ceb0 f    CIL library: CIL module
 0001:0001bf60       _fileWriterWrite           1001cf60 f    CIL library: CIL module
 0001:0001c0b0       _columnName                1001d0b0 f    CIL library: CIL module
 0001:0001c120       _doWalCallbacks            1001d120 f    CIL library: CIL module
 0001:0001c230       _sqlite3VdbeSerialGet      1001d230 f    CIL library: CIL module
 0001:0001c450       _sqlite3VdbeSerialPut      1001d450 f    CIL library: CIL module
 0001:0001c500       _sqlite3VdbeUsesBtree      1001d500 f    CIL library: CIL module
 0001:0001c530       _sqlite3VdbeJumpHere       1001d530 f    CIL library: CIL module
 0001:0001c550       _sqlite3VdbeIntegerAffinity 1001d550 f    CIL library: CIL module
 0001:0001c5b0       _sqlite3VdbeRealValue      1001d5b0 f    CIL library: CIL module
 0001:0001c600       _attachBackupObject        1001d600 f    CIL library: CIL module
 0001:0001c620       _backupTruncateFile        1001d620 f    CIL library: CIL module
 0001:0001c670       _sqlite3BtreeGetJournalname 1001d670 f    CIL library: CIL module
 0001:0001c680       _sqlite3BtreeGetFilename   1001d680 f    CIL library: CIL module
 0001:0001c6a0       _btreeCursor               1001d6a0 f    CIL library: CIL module
 0001:0001c710       _removeFromSharingList     1001d710 f    CIL library: CIL module
 0001:0001c7a0       _sqlite3BtreeLastPage      1001d7a0 f    CIL library: CIL module
 0001:0001c7b0       _btreePageFromDbPage       1001d7b0 f    CIL library: CIL module
 0001:0001c7e0       _btreeGetHasContent        1001d7e0 f    CIL library: CIL module
 0001:0001c800       _unlockBtreeMutex          1001d800 f    CIL library: CIL module
 0001:0001c820       _lockBtreeMutex            1001d820 f    CIL library: CIL module
 0001:0001c850       _walWriteToLog             1001d850 f    CIL library: CIL module
 0001:0001c8f0       _walMergesort              1001d8f0 f    CIL library: CIL module
 0001:0001ca20       _walFramePgno              1001da20 f    CIL library: CIL module
 0001:0001ca50       _walUnlockExclusive        1001da50 f    CIL library: CIL module
 0001:0001ca70       _walLockExclusive          1001da70 f    CIL library: CIL module
 0001:0001ca90       _walUnlockShared           1001da90 f    CIL library: CIL module
 0001:0001cab0       _walLockShared             1001dab0 f    CIL library: CIL module
 0001:0001cad0       _walDecodeFrame            1001dad0 f    CIL library: CIL module
 0001:0001cbe0       _walEncodeFrame            1001dbe0 f    CIL library: CIL module
 0001:0001cca0       _walShmBarrier             1001dca0 f    CIL library: CIL module
 0001:0001ccc0       _sqlite3PagerSetCodec      1001dcc0 f    CIL library: CIL module
 0001:0001cd20       _sqlite3PagerPageRefcount  1001dd20 f    CIL library: CIL module
 0001:0001cd30       _sqlite3PagerMemUsed       1001dd30 f    CIL library: CIL module
 0001:0001cd80       _sqlite3PagerRefcount      1001dd80 f    CIL library: CIL module
 0001:0001cd90       _sqlite3PagerSync          1001dd90 f    CIL library: CIL module
 0001:0001cdd0       _sqlite3PagerRef           1001ddd0 f    CIL library: CIL module
 0001:0001cde0       _pagerSyncHotJournal       1001dde0 f    CIL library: CIL module
 0001:0001ce20       _sqlite3PagerReadFileheader 1001de20 f    CIL library: CIL module
 0001:0001ce70       _pagerOpentemp             1001de70 f    CIL library: CIL module
 0001:0001ce90       _sqlite3PagerShrink        1001de90 f    CIL library: CIL module
 0001:0001ceb0       _pagerPagecount            1001deb0 f    CIL library: CIL module
 0001:0001cf40       _pager_write_changecounter 1001df40 f    CIL library: CIL module
 0001:0001cfc0       _setSectorSize             1001dfc0 f    CIL library: CIL module
 0001:0001d020       _pager_truncate            1001e020 f    CIL library: CIL module
 0001:0001d130       _zeroJournalHdr            1001e130 f    CIL library: CIL module
 0001:0001d200       _pagerLockDb               1001e200 f    CIL library: CIL module
 0001:0001d240       _pagerUnlockDb             1001e240 f    CIL library: CIL module
 0001:0001d260       _write32bits               1001e260 f    CIL library: CIL module
 0001:0001d2b0       _read32bits                1001e2b0 f    CIL library: CIL module
 0001:0001d310       _pageInJournal             1001e310 f    CIL library: CIL module
 0001:0001d330       _subjRequiresPage          1001e330 f    CIL library: CIL module
 0001:0001d380       _rowSetListToTree          1001e380 f    CIL library: CIL module
 0001:0001d450       _rowSetEntrySort           1001e450 f    CIL library: CIL module
 0001:0001d4d0       _pcache1Rekey              1001e4d0 f    CIL library: CIL module
 0001:0001d550       _pcache1Pagecount          1001e550 f    CIL library: CIL module
 0001:0001d590       _pcache1Init               1001e590 f    CIL library: CIL module
 0001:0001d600       _pcache1UnderMemoryPressure 1001e600 f    CIL library: CIL module
 0001:0001d630       _sqlite3PcacheSetCachesize 1001e630 f    CIL library: CIL module
 0001:0001d680       _pcacheSortDirtyList       1001e680 f    CIL library: CIL module
 0001:0001d720       _sqlite3PcacheMove         1001e720 f    CIL library: CIL module
 0001:0001d780       _sqlite3PcacheMakeClean    1001e780 f    CIL library: CIL module
 0001:0001d7d0       _sqlite3PcacheMakeDirty    1001e7d0 f    CIL library: CIL module
 0001:0001d820       _sqlite3PcacheDrop         1001e820 f    CIL library: CIL module
 0001:0001d860       _sqlite3PcacheRelease      1001e860 f    CIL library: CIL module
 0001:0001d8e0       _sqlite3PcacheFetch        1001e8e0 f    CIL library: CIL module
 0001:0001da50       _winCurrentTime            1001ea50 f    CIL library: CIL module
 0001:0001dab0       _winSleep                  1001eab0 f    CIL library: CIL module
 0001:0001dae0       _winShmLeaveMutex          1001eae0 f    CIL library: CIL module
 0001:0001db10       _winShmEnterMutex          1001eb10 f    CIL library: CIL module
 0001:0001db40       _winUnlockFile             1001eb40 f    CIL library: CIL module
 0001:0001dba0       _winLockFile               1001eba0 f    CIL library: CIL module
 0001:0001dc00       _retryIoerr                1001ec00 f    CIL library: CIL module
 0001:0001dc40       _findElementGivenHash      1001ec40 f    CIL library: CIL module
 0001:0001dc90       _sqlite3MulInt64           1001ec90 f    CIL library: CIL module
 0001:0001dd90       _sqlite3SubInt64           1001ed90 f    CIL library: CIL module
 0001:0001dde0       _sqlite3GetVarint32        1001ede0 f    CIL library: CIL module
 0001:0001de60       _sqlite3PutVarint32        1001ee60 f    CIL library: CIL module
 0001:0001de90       _sqlite3Atoi               1001ee90 f    CIL library: CIL module
 0001:0001deb0       _sqlite3Atoi64             1001eeb0 f    CIL library: CIL module
 0001:0001e060       _randomByte                1001f060 f    CIL library: CIL module
 0001:0001e220       _sqlite3DbMallocSize       1001f220 f    CIL library: CIL module
 0001:0001e250       _sqlite3ScratchFree        1001f250 f    CIL library: CIL module
 0001:0001e360       _sqlite3MallocAlarm        1001f360 f    CIL library: CIL module
 0001:0001e3e0       _sqlite3MemoryAlarm        1001f3e0 f    CIL library: CIL module
 0001:0001e470       _softHeapLimitEnforcer     1001f470 f    CIL library: CIL module
 0001:0001e480       _winMutexFree              1001f480 f    CIL library: CIL module
 0001:0001e4a0       _sqlite3NoopMutex          1001f4a0 f    CIL library: CIL module
 0001:0001e580       _sqlite3OsCloseFree        1001f580 f    CIL library: CIL module
 0001:0001e5b0       _osLocaltime               1001f5b0 f    CIL library: CIL module
 0001:0001e5d0       _computeHMS                1001f5d0 f    CIL library: CIL module
 0001:0001e680       _parseTimezone             1001f680 f    CIL library: CIL module
 0001:0001e760       _sqlite3CodecFree          1001f760 f    CIL library: CIL module
 0001:0001e800       _doSqlite3Free             1001f800 f    CIL library: CIL module
 0001:0001e810       _rtreeRowid                1001f810 f    CIL library: CIL module
 0001:0001e840       _nodeRowidIndex            1001f840 f    CIL library: CIL module
 0001:0001e890       _freeCursorConstraints     1001f890 f    CIL library: CIL module
 0001:0001e8f0       _nodeGetCell               1001f8f0 f    CIL library: CIL module
 0001:0001e970       _nodeInsertCell            1001f970 f    CIL library: CIL module
 0001:0001e9d0       _fts3ExprPhraseCount       1001f9d0 f    CIL library: CIL module
 0001:0001ea00       _fts3ExprLoadDoclists      1001fa00 f    CIL library: CIL module
 0001:0001ea60       _fts3GetDeltaPosition      1001fa60 f    CIL library: CIL module
 0001:0001ea80       _fts3IncrmergeHintPop      1001fa80 f    CIL library: CIL module
 0001:0001eb00       _nodeReaderRelease         1001fb00 f    CIL library: CIL module
 0001:0001eb10       _fts3ColumnFilter          1001fb10 f    CIL library: CIL module
 0001:0001ebb0       _fts3NodeFree              1001fbb0 f    CIL library: CIL module
 0001:0001ec10       _fts3PendingListDelete     1001fc10 f    CIL library: CIL module
 0001:0001ec20       _simpleClose               1001fc20 f    CIL library: CIL module
 0001:0001ec40       _simpleDestroy             1001fc40 f    CIL library: CIL module
 0001:0001ec50       _star_oh                   1001fc50 f    CIL library: CIL module
 0001:0001ecc0       _m_gt_1                    1001fcc0 f    CIL library: CIL module
 0001:0001ee00       _m_eq_1                    1001fe00 f    CIL library: CIL module
 0001:0001ef40       _m_gt_0                    1001ff40 f    CIL library: CIL module
 0001:0001eff0       _porterClose               1001fff0 f    CIL library: CIL module
 0001:0001f010       _porterDestroy             10020010 f    CIL library: CIL module
 0001:0001f020       _fts3FindElementByHash     10020020 f    CIL library: CIL module
 0001:0001f080       _fts3HashFree              10020080 f    CIL library: CIL module
 0001:0001f090       _fts3EvalUpdateCounts      10020090 f    CIL library: CIL module
 0001:0001f140       _fts3EvalInvalidatePoslist 10020140 f    CIL library: CIL module
 0001:0001f170       _sqlite3Fts3DoclistPrev    10020170 f    CIL library: CIL module
 0001:0001f2c0       _fts3PoslistPhraseMerge    100202c0 f    CIL library: CIL module
 0001:0001f6d0       _fts3ReadNextPos           100206d0 f    CIL library: CIL module
 0001:0001f860       _sqlite3GetToken           10020860 f    CIL library: CIL module
 0001:0001fef0       _sqlite3KeywordCode        10020ef0 f    CIL library: CIL module
 0001:0001ff00       _referencesOtherTables     10020f00 f    CIL library: CIL module
 0001:0001ffa0       _exprListTableUsage        10020fa0 f    CIL library: CIL module
 0001:00020000       _checkColumnOverlap        10021000 f    CIL library: CIL module
 0001:000200b0       _tableAndColumnIndex       100210b0 f    CIL library: CIL module
 0001:00020100       _getAutoVacuum             10021100 f    CIL library: CIL module
 0001:00020180       _getSafetyLevel            10021180 f    CIL library: CIL module
 0001:00020230       _xferCompatibleIndex       10021230 f    CIL library: CIL module
 0001:000202d0       _sqlite3FuncDefInsert      100212d0 f    CIL library: CIL module
 0001:00020350       _identPut                  10021350 f    CIL library: CIL module
 0001:00020400       _sqlite3ReleaseTempRange   10021400 f    CIL library: CIL module
 0001:00020420       _sqlite3ExprCacheAffinityChange 10021420 f    CIL library: CIL module
 0001:00020430       _sqlite3ExprIsConstantOrFunction 10021430 f    CIL library: CIL module
 0001:00020460       _sqlite3ExprIsConstantNotJoin 10021460 f    CIL library: CIL module
 0001:00020490       _sqlite3ExprIsConstant     10021490 f    CIL library: CIL module
 0001:000204c0       _dupedExprSize             100214c0 f    CIL library: CIL module
 0001:00020510       _heightOfSelect            10021510 f    CIL library: CIL module
 0001:00020600       _binaryCompareP5           10021600 f    CIL library: CIL module
 0001:00020640       _comparisonAffinity        10021640 f    CIL library: CIL module
 0001:000206a0       _sqlite3WalkSelect         100216a0 f    CIL library: CIL module
 0001:00020740       _memjrnlTruncate           10021740 f    CIL library: CIL module
 0001:00020790       _fileWriterWriteVarint     10021790 f    CIL library: CIL module
 0001:000207e0       _applyNumericAffinity      100217e0 f    CIL library: CIL module
 0001:00020860       _findNextHostParameter     10021860 f    CIL library: CIL module
 0001:00020990       _sqlite3VdbeRecordUnpack   10021990 f    CIL library: CIL module
 0001:00020a80       _sqlite3VdbeMemNumerify    10021a80 f    CIL library: CIL module
 0001:00020b00       _sqlite3VdbeMemRealify     10021b00 f    CIL library: CIL module
 0001:00020b60       _sqlite3VdbeIntValue       10021b60 f    CIL library: CIL module
 0001:00020bd0       _cellSizePtr               10021bd0 f    CIL library: CIL module
 0001:00020ca0       _btreeParseCellPtr         10021ca0 f    CIL library: CIL module
 0001:00020df0       _sqlite3BtreeClearCursor   10021df0 f    CIL library: CIL module
 0001:00020e10       _invalidateOverflowCache   10021e10 f    CIL library: CIL module
 0001:00020e30       _clearAllSharedCacheTableLocks 10021e30 f    CIL library: CIL module
 0001:00020e90       _sqlite3BtreeLeave         10021e90 f    CIL library: CIL module
 0001:00020ec0       _sqlite3BtreeEnter         10021ec0 f    CIL library: CIL module
 0001:00020f80       _sqlite3WalExclusiveMode   10021f80 f    CIL library: CIL module
 0001:00020ff0       _walWriteOneFrame          10021ff0 f    CIL library: CIL module
 0001:000210c0       _sqlite3WalEndWriteTransaction 100220c0 f    CIL library: CIL module
 0001:000210f0       _sqlite3WalBeginWriteTransaction 100220f0 f    CIL library: CIL module
 0001:00021170       _sqlite3WalEndReadTransaction 10022170 f    CIL library: CIL module
 0001:000211d0       _walIndexTryHdr            100221d0 f    CIL library: CIL module
 0001:000212f0       _walBusyLock               100222f0 f    CIL library: CIL module
 0001:00021340       _walIteratorFree           10022340 f    CIL library: CIL module
 0001:00021350       _walIndexClose             10022350 f    CIL library: CIL module
 0001:000213a0       _walIndexWriteHdr          100223a0 f    CIL library: CIL module
 0001:00021420       _pagerExclusiveLock        10022420 f    CIL library: CIL module
 0001:00021480       _sqlite3PagerUnref         10022480 f    CIL library: CIL module
 0001:000214b0       _sqlite3PagerLookup        100224b0 f    CIL library: CIL module
 0001:000214e0       _hasHotJournal             100224e0 f    CIL library: CIL module
 0001:00021690       _openSubJournal            10022690 f    CIL library: CIL module
 0001:000216e0       _pager_wait_on_lock        100226e0 f    CIL library: CIL module
 0001:00021740       _sqlite3PagerSetCachesize  10022740 f    CIL library: CIL module
 0001:000217a0       _pager_lookup              100227a0 f    CIL library: CIL module
 0001:000217c0       _writeMasterJournal        100227c0 f    CIL library: CIL module
 0001:000219a0       _readMasterJournal         100229a0 f    CIL library: CIL module
 0001:00021af0       _rowSetToList              10022af0 f    CIL library: CIL module
 0001:00021b10       _pcache1Free               10022b10 f    CIL library: CIL module
 0001:00021c00       _sqlite3PcacheDirtyList    10022c00 f    CIL library: CIL module
 0001:00021c20       _sqlite3PcacheTruncate     10022c20 f    CIL library: CIL module
 0001:00021cc0       _sqlite3PcacheCleanAll     10022cc0 f    CIL library: CIL module
 0001:00021d10       _sqlite3BitvecDestroy      10022d10 f    CIL library: CIL module
 0001:00021d50       _winIsDir                  10022d50 f    CIL library: CIL module
 0001:00021df0       _winShmBarrier             10022df0 f    CIL library: CIL module
 0001:00021e40       _winShmSystemLock          10022e40 f    CIL library: CIL module
 0001:00021ea0       _winCheckReservedLock      10022ea0 f    CIL library: CIL module
 0001:00021f00       _sqlite3HashFind           10022f00 f    CIL library: CIL module
 0001:00021f40       _sqlite3HashClear          10022f40 f    CIL library: CIL module
 0001:00021fe0       _sqlite3DbFree             10022fe0 f    CIL library: CIL module
 0001:00022060       _mallocWithAlarm           10023060 f    CIL library: CIL module
 0001:00022150       _computeYMD_HMS            10023150 f    CIL library: CIL module
 0001:00022160       _parseHhMmSs               10023160 f    CIL library: CIL module
 0001:00022480       _rtreeValueUp              10023480 f    CIL library: CIL module
 0001:00022520       _rtreeValueDown            10023520 f    CIL library: CIL module
 0001:000225c0       _nodeParentIndex           100235c0 f    CIL library: CIL module
 0001:000225f0       _testRtreeEntry            100235f0 f    CIL library: CIL module
 0001:00022740       _testRtreeCell             10023740 f    CIL library: CIL module
 0001:00022890       _fts3SnippetDetails        10023890 f    CIL library: CIL module
 0001:00022a40       _fts3SnippetAdvance        10023a40 f    CIL library: CIL module
 0001:00022ab0       _sqlite3Fts3FreeDeferredTokens 10023ab0 f    CIL library: CIL module
 0001:00022af0       _sqlite3Fts3FreeDeferredDoclists 10023af0 f    CIL library: CIL module
 0001:00022b20       _fts3SegWriterFree         10023b20 f    CIL library: CIL module
 0001:00022b50       _porter_stemmer            10023b50 f    CIL library: CIL module
 0001:00023430       _sqlite3Fts3HashFindElem   10024430 f    CIL library: CIL module
 0001:00023470       _sqlite3Fts3HashClear      10024470 f    CIL library: CIL module
 0001:000234c0       _hashDestroy               100244c0 f    CIL library: CIL module
 0001:000234e0       _fts3DoclistPhraseMerge    100244e0 f    CIL library: CIL module
 0001:000237e0       _fts3PoslistMerge          100247e0 f    CIL library: CIL module
 0001:00023c40       _functionDestroy           10024c40 f    CIL library: CIL module
 0001:00023c70       _sqlite3CloseSavepoints    10024c70 f    CIL library: CIL module
 0001:00023cc0       _whereAndInfoDelete        10024cc0 f    CIL library: CIL module
 0001:00023ce0       _whereOrInfoDelete         10024ce0 f    CIL library: CIL module
 0001:00023d00       _sqlite3VtabClear          10024d00 f    CIL library: CIL module
 0001:00023d50       _sqlite3VtabUnlock         10024d50 f    CIL library: CIL module
 0001:00023d80       _sqlite3TriggerColmask     10024d80 f    CIL library: CIL module
 0001:00023e00       _transferParseError        10024e00 f    CIL library: CIL module
 0001:00023e20       _sqlite3TriggersExist      10024e20 f    CIL library: CIL module
 0001:00023e90       _tableOfTrigger            10024e90 f    CIL library: CIL module
 0001:00023ef0       _sqlite3GetBoolean         10024ef0 f    CIL library: CIL module
 0001:00023f10       _sqlite3CloseExtensions    10024f10 f    CIL library: CIL module
 0001:00023f50       _sqlite3FkReferences       10024f50 f    CIL library: CIL module
 0001:00023fb0       _sqlite3IdListDelete       10024fb0 f    CIL library: CIL module
 0001:00023ff0       _sqlite3CollapseDatabaseArray 10024ff0 f    CIL library: CIL module
 0001:000240c0       _sqlite3FindIndex          100250c0 f    CIL library: CIL module
 0001:00024200       _sqlite3FindTable          10025200 f    CIL library: CIL module
 0001:00024340       _sqlite3DeleteIndexSamples 10025340 f    CIL library: CIL module
 0001:000243a0       _analysisLoader            100253a0 f    CIL library: CIL module
 0001:000244b0       _isAppropriateForFactoring 100254b0 f    CIL library: CIL module
 0001:00024580       _sqlite3SelectExprHeight   10025580 f    CIL library: CIL module
 0001:000245a0       _exprSetHeight             100255a0 f    CIL library: CIL module
 0001:00024640       _sqlite3IndexAffinityOk    10025640 f    CIL library: CIL module
 0001:00024670       _memjrnlClose              10025670 f    CIL library: CIL module
 0001:00024690       _fileWriterFinish          10025690 f    CIL library: CIL module
 0001:00024730       _vdbeSorterRecordFree      10025730 f    CIL library: CIL module
 0001:00024750       _vdbeSorterIterZero        10025750 f    CIL library: CIL module
 0001:000247f0       _Cleanup                   100257f0 f    CIL library: CIL module
 0001:00024810       _sqlite3VdbeLeave          10025810 f    CIL library: CIL module
 0001:00024890       _sqlite3VdbeEnter          10025890 f    CIL library: CIL module
 0001:000248f0       _freeEphemeralFunction     100258f0 f    CIL library: CIL module
 0001:00024900       _sqlite3VdbeMemIntegerify  10025900 f    CIL library: CIL module
 0001:00024930       _sqlite3VdbeMemFinalize    10025930 f    CIL library: CIL module
 0001:000249a0       _sqlite3BtreeCacheOverflow 100259a0 f    CIL library: CIL module
 0001:000249c0       _sqlite3BtreeSchemaLocked  100259c0 f    CIL library: CIL module
 0001:00024a30       _sqlite3BtreeGetMeta       10025a30 f    CIL library: CIL module
 0001:00024aa0       _sqlite3BtreeCursor        10025aa0 f    CIL library: CIL module
 0001:00024af0       _sqlite3BtreeGetAutoVacuum 10025af0 f    CIL library: CIL module
 0001:00024b40       _sqlite3BtreeSetAutoVacuum 10025b40 f    CIL library: CIL module
 0001:00024bb0       _sqlite3BtreeSecureDelete  10025bb0 f    CIL library: CIL module
 0001:00024c20       _sqlite3BtreeMaxPageCount  10025c20 f    CIL library: CIL module
 0001:00024c70       _sqlite3BtreeGetReserve    10025c70 f    CIL library: CIL module
 0001:00024cb0       _sqlite3BtreeSyncDisabled  10025cb0 f    CIL library: CIL module
 0001:00024cf0       _sqlite3BtreeSetSafetyLevel 10025cf0 f    CIL library: CIL module
 0001:00024d40       _sqlite3BtreeSetCacheSize  10025d40 f    CIL library: CIL module
 0001:00024d80       _releasePage               10025d80 f    CIL library: CIL module
 0001:00024dc0       _btreePageLookup           10025dc0 f    CIL library: CIL module
 0001:00024e20       _btreeParseCell            10025e20 f    CIL library: CIL module
 0001:00024e50       _btreeClearHasContent      10025e50 f    CIL library: CIL module
 0001:00024e70       _invalidateAllOverflowCache 10025e70 f    CIL library: CIL module
 0001:00024ea0       _sqlite3BtreeLeaveAll      10025ea0 f    CIL library: CIL module
 0001:00024ef0       _sqlite3BtreeEnterAll      10025ef0 f    CIL library: CIL module
 0001:00024f20       _sqlite3BtreeLeaveCursor   10025f20 f    CIL library: CIL module
 0001:00024f50       _sqlite3BtreeEnterCursor   10025f50 f    CIL library: CIL module
 0001:00024f60       _sqlite3PagerExclusiveLock 10025f60 f    CIL library: CIL module
 0001:00024f80       _sqlite3PagerBegin         10025f80 f    CIL library: CIL module
 0001:00025080       _releaseAllSavepoints      10026080 f    CIL library: CIL module
 0001:00025130       _writeJournalHdr           10026130 f    CIL library: CIL module
 0001:00025370       _sqlite3RowSetClear        10026370 f    CIL library: CIL module
 0001:000253b0       _sqlite3PageFree           100263b0 f    CIL library: CIL module
 0001:000253c0       _pcache1FreePage           100263c0 f    CIL library: CIL module
 0001:000253e0       _sqlite3PcacheClear        100263e0 f    CIL library: CIL module
 0001:000253f0       _winShmLock                100263f0 f    CIL library: CIL module
 0001:000255d0       _getReadLock               100265d0 f    CIL library: CIL module
 0001:00025690       _removeElementGivenHash    10026690 f    CIL library: CIL module
 0001:000256e0       _sqlite3StrAccumReset      100266e0 f    CIL library: CIL module
 0001:00025710       _sqlite3StrAccumAppend     10026710 f    CIL library: CIL module
 0001:00025840       _sqlite3AppendSpace        10026840 f    CIL library: CIL module
 0001:00025890       _sqlite3ScratchMalloc      10026890 f    CIL library: CIL module
 0001:000259b0       _sqlite3Malloc             100269b0 f    CIL library: CIL module
 0001:00025a20       _parseYyyyMmDd             10026a20 f    CIL library: CIL module
 0001:00025c50       _fixBoundingBox            10026c50 f    CIL library: CIL module
 0001:00025d30       _AdjustTree                10026d30 f    CIL library: CIL module
 0001:00025e10       _fts3SnippetNextCandidate  10026e10 f    CIL library: CIL module
 0001:00025f00       _sqlite3Fts3PendingTermsClear 10026f00 f    CIL library: CIL module
 0001:00025fc0       _sqlite3Fts3HashFind       10026fc0 f    CIL library: CIL module
 0001:00026000       _fts3RemoveElementByHash   10027000 f    CIL library: CIL module
 0001:00026080       _fts3EvalPhraseMergeToken  10027080 f    CIL library: CIL module
 0001:00026130       _fts3RollbackToMethod      10027130 f    CIL library: CIL module
 0001:00026140       _fts3RollbackMethod        10027140 f    CIL library: CIL module
 0001:00026150       _fts3PoslistNearMerge      10027150 f    CIL library: CIL module
 0001:00026300       _setupLookaside            10027300 f    CIL library: CIL module
 0001:00026410       _explainAppendTerm         10027410 f    CIL library: CIL module
 0001:00026460       _termCanDriveIndex         10027460 f    CIL library: CIL module
 0001:000264d0       _callFinaliser             100274d0 f    CIL library: CIL module
 0001:00026570       _sqlite3VtabCallDestroy    10027570 f    CIL library: CIL module
 0001:000265f0       _sqlite3VtabUnlockList     100275f0 f    CIL library: CIL module
 0001:00026650       _sqlite3VtabDisconnect     10027650 f    CIL library: CIL module
 0001:000266a0       _sqlite3FkRequired         100276a0 f    CIL library: CIL module
 0001:000268b0       _sqlite3SrcListDelete      100278b0 f    CIL library: CIL module
 0001:000269a0       _freeIndex                 100279a0 f    CIL library: CIL module
 0001:000269c0       _stat3Push                 100279c0 f    CIL library: CIL module
 0001:00026ba0       _sqlite3VdbeSorterClose    10027ba0 f    CIL library: CIL module
 0001:00026c70       _sqlite3VdbeMemSetNull     10027c70 f    CIL library: CIL module
 0001:00026cc0       _sqlite3VdbeMemReleaseExternal 10027cc0 f    CIL library: CIL module
 0001:00026d30       _moveToParent              10027d30 f    CIL library: CIL module
 0001:00026d80       _fetchPayload              10027d80 f    CIL library: CIL module
 0001:00026e00       _getCellInfo               10027e00 f    CIL library: CIL module
 0001:00026e50       _sqlite3BtreeTripAllCursors 10027e50 f    CIL library: CIL module
 0001:00026f20       _unlockBtreeIfUnused       10027f20 f    CIL library: CIL module
 0001:00026f70       _freeTempSpace             10027f70 f    CIL library: CIL module
 0001:00026f90       _syncJournal               10027f90 f    CIL library: CIL module
 0001:000271d0       _pager_end_transaction     100281d0 f    CIL library: CIL module
 0001:000273a0       _pager_reset               100283a0 f    CIL library: CIL module
 0001:000273d0       _sqlite3RowSetNext         100283d0 f    CIL library: CIL module
 0001:00027420       _pcache1Unpin              10028420 f    CIL library: CIL module
 0001:000274d0       _pcache1TruncateUnsafe     100284d0 f    CIL library: CIL module
 0001:00027590       _pcache1EnforceMaxPage     10028590 f    CIL library: CIL module
 0001:00027660       _pcache1Alloc              10028660 f    CIL library: CIL module
 0001:00027760       _rehash                    10028760 f    CIL library: CIL module
 0001:000278b0       _sqlite3VXPrintf           100288b0 f    CIL library: CIL module
 0001:00028810       _sqlite3DbMallocRaw        10029810 f    CIL library: CIL module
 0001:00028890       _sqlite3DbMallocZero       10029890 f    CIL library: CIL module
 0001:000288b0       _sqlite3MallocZero         100298b0 f    CIL library: CIL module
 0001:000288d0       _sqlite3Realloc            100298d0 f    CIL library: CIL module
 0001:00028a30       _winMutexAlloc             10029a30 f    CIL library: CIL module
 0001:00028a90       _sqlite3OsOpenMalloc       10029a90 f    CIL library: CIL module
 0001:00028b00       _parseDateOrTime           10029b00 f    CIL library: CIL module
 0001:00028bb0       _CreateCryptBlock          10029bb0 f    CIL library: CIL module
 0001:00028c80       _sqlite3StrDup             10029c80 f    CIL library: CIL module
 0001:00028cc0       _splitNodeStartree         10029cc0 f    CIL library: CIL module
 0001:00029190       _deserializeGeometry       1002a190 f    CIL library: CIL module
 0001:00029280       _rtreeOpen                 1002a280 f    CIL library: CIL module
 0001:000292d0       _nodeNew                   1002a2d0 f    CIL library: CIL module
 0001:00029330       _sqlite3Fts3DeferToken     1002a330 f    CIL library: CIL module
 0001:00029370       _sqlite3Fts3DeferredTokenList 1002a370 f    CIL library: CIL module
 0001:000293f0       _sqlite3Fts3SegReaderNew   1002a3f0 f    CIL library: CIL module
 0001:000294d0       _simpleOpen                1002a4d0 f    CIL library: CIL module
 0001:00029540       _simpleCreate              1002a540 f    CIL library: CIL module
 0001:00029620       _porterOpen                1002a620 f    CIL library: CIL module
 0001:00029690       _porterCreate              1002a690 f    CIL library: CIL module
 0001:000296c0       _fts3HashMalloc            1002a6c0 f    CIL library: CIL module
 0001:000296f0       _fts3MallocZero            1002a6f0 f    CIL library: CIL module
 0001:00029720       _fts3auxOpenMethod         1002a720 f    CIL library: CIL module
 0001:00029760       _fts3EvalNearTrim          1002a760 f    CIL library: CIL module
 0001:000297e0       _fts3EvalDeferredPhrase    1002a7e0 f    CIL library: CIL module
 0001:000299f0       _fts3DoclistOrMerge        1002a9f0 f    CIL library: CIL module
 0001:00029d60       _fts3OpenMethod            1002ad60 f    CIL library: CIL module
 0001:00029da0       _fts3PrefixParameter       1002ada0 f    CIL library: CIL module
 0001:00029e80       _fts3QuoteId               1002ae80 f    CIL library: CIL module
 0001:00029ee0       _disconnectAllVtab         1002aee0 f    CIL library: CIL module
 0001:0002a070       _bestAutomaticIndex        1002b070 f    CIL library: CIL module
 0001:0002a170       _sqlite3VtabCommit         1002b170 f    CIL library: CIL module
 0001:0002a180       _sqlite3VtabRollback       1002b180 f    CIL library: CIL module
 0001:0002a190       _triggerStepAllocate       1002b190 f    CIL library: CIL module
 0001:0002a1e0       _clearSelect               1002b1e0 f    CIL library: CIL module
 0001:0002a260       _autoIncBegin              1002b260 f    CIL library: CIL module
 0001:0002a2d0       _sqlite3IndexAffinityStr   1002b2d0 f    CIL library: CIL module
 0001:0002a340       _sqlite3FindFunction       1002b340 f    CIL library: CIL module
 0001:0002a540       _dup8bytes                 1002b540 f    CIL library: CIL module
 0001:0002a560       _sqlite3ExprAlloc          1002b560 f    CIL library: CIL module
 0001:0002a670       _sqlite3CreateColumnExpr   1002b670 f    CIL library: CIL module
 0001:0002a700       _memjrnlWrite              1002b700 f    CIL library: CIL module
 0001:0002a820       _fileWriterInit            1002b820 f    CIL library: CIL module
 0001:0002a8a0       _vdbeSorterOpenTempFile    1002b8a0 f    CIL library: CIL module
 0001:0002a9e0       _sqlite3VdbeAllocUnpackedRecord 1002b9e0 f    CIL library: CIL module
 0001:0002aa30       _sqlite3VdbeCreate         1002ba30 f    CIL library: CIL module
 0001:0002aa90       _sqlite3ValueNew           1002ba90 f    CIL library: CIL module
 0001:0002aad0       _sqlite3VdbeMemCopy        1002bad0 f    CIL library: CIL module
 0001:0002ab40       _sqlite3VdbeMemShallowCopy 1002bb40 f    CIL library: CIL module
 0001:0002ab90       _sqlite3VdbeMemRelease     1002bb90 f    CIL library: CIL module
 0001:0002abd0       _sqlite3BtreeSchema        1002bbd0 f    CIL library: CIL module
 0001:0002ac40       _checkAppendMsg            1002bc40 f    CIL library: CIL module
 0001:0002acb0       _sqlite3BtreeDataFetch     1002bcb0 f    CIL library: CIL module
 0001:0002acd0       _sqlite3BtreeKeyFetch      1002bcd0 f    CIL library: CIL module
 0001:0002ad30       _sqlite3BtreeDataSize      1002bd30 f    CIL library: CIL module
 0001:0002ad80       _sqlite3BtreeKeySize       1002bd80 f    CIL library: CIL module
 0001:0002ae00       _sqlite3BtreeCloseCursor   1002be00 f    CIL library: CIL module
 0001:0002af40       _btreeEndTransaction       1002bf40 f    CIL library: CIL module
 0001:0002b000       _setSharedCacheTableLock   1002c000 f    CIL library: CIL module
 0001:0002b0c0       _sqlite3WalOpen            1002c0c0 f    CIL library: CIL module
 0001:0002b1e0       _pagerOpenWal              1002c1e0 f    CIL library: CIL module
 0001:0002b230       _sqlite3PagerClearCache    1002c230 f    CIL library: CIL module
 0001:0002b270       _sqlite3PagerCommitPhaseTwo 1002c270 f    CIL library: CIL module
 0001:0002b2c0       _pager_delmaster           1002c2c0 f    CIL library: CIL module
 0001:0002b510       _pager_unlock              1002c510 f    CIL library: CIL module
 0001:0002b600       _rowSetEntryAlloc          1002c600 f    CIL library: CIL module
 0001:0002b650       _pcache1Destroy            1002c650 f    CIL library: CIL module
 0001:0002b6c0       _pcache1Truncate           1002c6c0 f    CIL library: CIL module
 0001:0002b710       _pcache1Shrink             1002c710 f    CIL library: CIL module
 0001:0002b760       _pcache1Cachesize          1002c760 f    CIL library: CIL module
 0001:0002b7d0       _pcache1Create             1002c7d0 f    CIL library: CIL module
 0001:0002b890       _pcache1ResizeHash         1002c890 f    CIL library: CIL module
 0001:0002b980       _sqlite3PageMalloc         1002c980 f    CIL library: CIL module
 0001:0002b990       _pcache1AllocPage          1002c990 f    CIL library: CIL module
 0001:0002ba00       _sqlite3BitvecCreate       1002ca00 f    CIL library: CIL module
 0001:0002ba30       _unicodeToMbcs             1002ca30 f    CIL library: CIL module
 0001:0002bab0       _mbcsToUnicode             1002cab0 f    CIL library: CIL module
 0001:0002bb30       _unicodeToUtf8             1002cb30 f    CIL library: CIL module
 0001:0002bba0       _utf8ToUnicode             1002cba0 f    CIL library: CIL module
 0001:0002bc10       _sqlite3HashInsert         1002cc10 f    CIL library: CIL module
 0001:0002bd20       _sqlite3HexToBlob          1002cd20 f    CIL library: CIL module
 0001:0002bda0       _sqlite3XPrintf            1002cda0 f    CIL library: CIL module
 0001:0002bdc0       _sqlite3StrAccumFinish     1002cdc0 f    CIL library: CIL module
 0001:0002be40       _sqlite3DbStrNDup          1002ce40 f    CIL library: CIL module
 0001:0002be70       _sqlite3DbStrDup           1002ce70 f    CIL library: CIL module
 0001:0002bec0       _sqlite3DefaultMutex       1002cec0 f    CIL library: CIL module
 0001:0002bed0       _sqlite3MutexInit          1002ced0 f    CIL library: CIL module
 0001:0002bf70       _modeStep                  1002cf70 f    CIL library: CIL module
 0001:0002c0d0       _varianceStep              1002d0d0 f    CIL library: CIL module
 0001:0002c1a0       _fts3Rehash                1002d1a0 f    CIL library: CIL module
 0001:0002c2a0       _getNextToken              1002d2a0 f    CIL library: CIL module
 0001:0002c430       _fts3EvalNearTest          1002d430 f    CIL library: CIL module
 0001:0002c5f0       _fts3TermSelectMerge       1002d5f0 f    CIL library: CIL module
 0001:0002c6f0       _fts3TermSelectFinishMerge 1002d6f0 f    CIL library: CIL module
 0001:0002c790       _explainIndexRange         1002d790 f    CIL library: CIL module
 0001:0002c970       _sqlite3VtabOverloadFunction 1002d970 f    CIL library: CIL module
 0001:0002caa0       _sqlite3VtabSync           1002daa0 f    CIL library: CIL module
 0001:0002cb80       _sqlite3SelectDelete       1002db80 f    CIL library: CIL module
 0001:0002cba0       _sqlite3IsLikeFunction     1002dba0 f    CIL library: CIL module
 0001:0002cc20       _setLikeOptFlag            1002dc20 f    CIL library: CIL module
 0001:0002cc60       _groupConcatStep           1002dc60 f    CIL library: CIL module
 0001:0002cd70       _minmaxStep                1002dd70 f    CIL library: CIL module
 0001:0002ce40       _countStep                 1002de40 f    CIL library: CIL module
 0001:0002ceb0       _sumStep                   1002deb0 f    CIL library: CIL module
 0001:0002cfc0       _findCollSeqEntry          1002dfc0 f    CIL library: CIL module
 0001:0002d0b0       _sqlite3NameFromToken      1002e0b0 f    CIL library: CIL module
 0001:0002d110       _sqlite3UnlinkAndDeleteIndex 1002e110 f    CIL library: CIL module
 0001:0002d1f0       _sqlite3ExprListSetSpan    1002e1f0 f    CIL library: CIL module
 0001:0002d250       _sqlite3ExprListSetName    1002e250 f    CIL library: CIL module
 0001:0002d2b0       _sqlite3IdListDup          1002e2b0 f    CIL library: CIL module
 0001:0002d390       _sqlite3SrcListDup         1002e390 f    CIL library: CIL module
 0001:0002d5f0       _sqlite3ExprListDup        1002e5f0 f    CIL library: CIL module
 0001:0002d780       _sqlite3ExprDelete         1002e780 f    CIL library: CIL module
 0001:0002d840       _sqlite3ExprAttachSubtrees 1002e840 f    CIL library: CIL module
 0001:0002d8a0       _sqlite3Expr               1002e8a0 f    CIL library: CIL module
 0001:0002d8e0       _sqlite3VdbeSorterInit     1002e8e0 f    CIL library: CIL module
 0001:0002d9a0       _importVtabErrMsg          1002e9a0 f    CIL library: CIL module
 0001:0002db60       _releaseMemArray           1002eb60 f    CIL library: CIL module
 0001:0002dc20       _sqlite3VdbeSetSql         1002ec20 f    CIL library: CIL module
 0001:0002dc80       _sqlite3ValueFree          1002ec80 f    CIL library: CIL module
 0001:0002dcd0       _sqlite3VdbeMemSetStr      1002ecd0 f    CIL library: CIL module
 0001:0002dec0       _sqlite3VdbeMemMove        1002eec0 f    CIL library: CIL module
 0001:0002df10       _sqlite3VdbeMemSetRowSet   1002ef10 f    CIL library: CIL module
 0001:0002dfd0       _sqlite3VdbeMemSetDouble   1002efd0 f    CIL library: CIL module
 0001:0002e080       _sqlite3VdbeMemSetInt64    1002f080 f    CIL library: CIL module
 0001:0002e0d0       _sqlite3VdbeMemSetZeroBlob 1002f0d0 f    CIL library: CIL module
 0001:0002e130       _sqlite3BtreeLockTable     1002f130 f    CIL library: CIL module
 0001:0002e1a0       _checkRef                  1002f1a0 f    CIL library: CIL module
 0001:0002e200       _sqlite3BtreeCommitPhaseTwo 1002f200 f    CIL library: CIL module
 0001:0002e280       _allocateTempSpace         1002f280 f    CIL library: CIL module
 0001:0002e2a0       _sqlite3PagerOpenWal       1002f2a0 f    CIL library: CIL module
 0001:0002e310       _sqlite3PagerOpenSavepoint 1002f310 f    CIL library: CIL module
 0001:0002e440       _pager_open_journal        1002f440 f    CIL library: CIL module
 0001:0002e520       _sqlite3PagerSetPagesize   1002f520 f    CIL library: CIL module
 0001:0002e660       _pagerOpenWalIfPresent     1002f660 f    CIL library: CIL module
 0001:0002e6e0       _readJournalHdr            1002f6e0 f    CIL library: CIL module
 0001:0002e930       _sqlite3RowSetTest         1002f930 f    CIL library: CIL module
 0001:0002ea80       _sqlite3RowSetInsert       1002fa80 f    CIL library: CIL module
 0001:0002eb10       _pcache1Fetch              1002fb10 f    CIL library: CIL module
 0001:0002ed10       _sqlite3BitvecSet          1002fd10 f    CIL library: CIL module
 0001:0002ef70       _renderLogMsg              1002ff70 f    CIL library: CIL module
 0001:0002f110       _sqlite3VMPrintf           10030110 f    CIL library: CIL module
 0001:0002f190       _sqlite3SetString          10030190 f    CIL library: CIL module
 0001:0002f1c0       _sqlite3Fts3HashInsert     100301c0 f    CIL library: CIL module
 0001:0002f310       _fts3EvalTestExpr          10030310 f    CIL library: CIL module
 0001:0002f510       _binaryToUnaryIfNull       10030510 f    CIL library: CIL module
 0001:0002f540       _whereClauseInsert         10030540 f    CIL library: CIL module
 0001:0002f610       _whereClauseClear          10030610 f    CIL library: CIL module
 0001:0002f680       _sqlite3TriggerSelectStep  10030680 f    CIL library: CIL module
 0001:0002f6e0       _minMaxFinalize            100306e0 f    CIL library: CIL module
 0001:0002f760       _nullifFunc                10030760 f    CIL library: CIL module
 0001:0002f7a0       _minmaxFunc                100307a0 f    CIL library: CIL module
 0001:0002f890       _sqlite3FindCollSeq        10030890 f    CIL library: CIL module
 0001:0002f8c0       _synthCollSeq              100308c0 f    CIL library: CIL module
 0001:0002f9d0       _sqlite3SrcListIndexedBy   100309d0 f    CIL library: CIL module
 0001:0002fa10       _sqlite3AddColumnType      10030a10 f    CIL library: CIL module
 0001:0002fa50       _sqlite3FindDb             10030a50 f    CIL library: CIL module
 0001:0002fa80       _sqliteDeleteColumnNames   10030a80 f    CIL library: CIL module
 0001:0002faf0       _sqlite3NestedParse        10030af0 f    CIL library: CIL module
 0001:0002fbb0       _sqlite3ExprListDelete     10030bb0 f    CIL library: CIL module
 0001:0002fc20       _sqlite3SelectDup          10030c20 f    CIL library: CIL module
 0001:0002fd50       _exprDup                   10030d50 f    CIL library: CIL module
 0001:0002ffd0       _sqlite3ExprAnd            10030fd0 f    CIL library: CIL module
 0001:000300a0       _sqlite3TransferBindings   100310a0 f    CIL library: CIL module
 0001:00030420       _setResultStrOrError       10031420 f    CIL library: CIL module
 0001:00030460       _sqlite3VdbeCheckFk        10031460 f    CIL library: CIL module
 0001:000304c0       _sqlite3VdbeSetColName     100314c0 f    CIL library: CIL module
 0001:00030500       _sqlite3VdbeSetNumCols     10031500 f    CIL library: CIL module
 0001:00030580       _freeP4                    10031580 f    CIL library: CIL module
 0001:00030680       _sqlite3ValueSetStr        10031680 f    CIL library: CIL module
 0001:000306a0       _sqlite3BtreeBeginStmt     100316a0 f    CIL library: CIL module
 0001:000306f0       _sqlite3BtreeSetPageSize   100316f0 f    CIL library: CIL module
 0001:000307d0       _btreeSetHasContent        100317d0 f    CIL library: CIL module
 0001:00030840       _addToSavepointBitvecs     10031840 f    CIL library: CIL module
 0001:00030890       _sqlite3BitvecBuiltinTest  10031890 f    CIL library: CIL module
 0001:00030b50       _convertUtf8Filename       10031b50 f    CIL library: CIL module
 0001:00030b90       _sqlite3ErrorMsg           10031b90 f    CIL library: CIL module
 0001:00030bd0       _sqlite3Error              10031bd0 f    CIL library: CIL module
 0001:00030d00       _sqlite3MAppendf           10031d00 f    CIL library: CIL module
 0001:00030d30       _sqlite3MPrintf            10031d30 f    CIL library: CIL module
 0001:00030d50       _sqlite3ApiExit            10031d50 f    CIL library: CIL module
 0001:00030d90       _localtimeOffset           10031d90 f    CIL library: CIL module
 0001:00031110       _lastRowsFunc              10032110 f    CIL library: CIL module
 0001:00031170       _differenceFunc            10032170 f    CIL library: CIL module
 0001:000312f0       _varianceFinalize          100322f0 f    CIL library: CIL module
 0001:00031370       _stdevFinalize             10032370 f    CIL library: CIL module
 0001:000313f0       __medianFinalize           100323f0 f    CIL library: CIL module
 0001:000314e0       _modeFinalize              100324e0 f    CIL library: CIL module
 0001:00031590       _charindexFunc             10032590 f    CIL library: CIL module
 0001:00031650       _floorFunc                 10032650 f    CIL library: CIL module
 0001:000316c0       _ceilFunc                  100326c0 f    CIL library: CIL module
 0001:00031730       _signFunc                  10032730 f    CIL library: CIL module
 0001:00031820       _atn2Func                  10032820 f    CIL library: CIL module
 0001:000318d0       _powerFunc                 100328d0 f    CIL library: CIL module
 0001:000319d0       _squareFunc                100329d0 f    CIL library: CIL module
 0001:00031a40       _piFunc                    10032a40 f    CIL library: CIL module
 0001:00031a70       _deg2radFunc               10032a70 f    CIL library: CIL module
 0001:00031b20       _rad2degFunc               10032b20 f    CIL library: CIL module
 0001:00031bd0       _expFunc                   10032bd0 f    CIL library: CIL module
 0001:00031c80       _log10Func                 10032c80 f    CIL library: CIL module
 0001:00031d30       _logFunc                   10032d30 f    CIL library: CIL module
 0001:00031de0       _cothFunc                  10032de0 f    CIL library: CIL module
 0001:00031e90       _tanhFunc                  10032e90 f    CIL library: CIL module
 0001:00031f40       _coshFunc                  10032f40 f    CIL library: CIL module
 0001:00031ff0       _sinhFunc                  10032ff0 f    CIL library: CIL module
 0001:000320a0       _cotFunc                   100330a0 f    CIL library: CIL module
 0001:00032150       _tanFunc                   10033150 f    CIL library: CIL module
 0001:00032200       _cosFunc                   10033200 f    CIL library: CIL module
 0001:000322b0       _sinFunc                   100332b0 f    CIL library: CIL module
 0001:00032360       _atanhFunc                 10033360 f    CIL library: CIL module
 0001:00032420       _asinhFunc                 10033420 f    CIL library: CIL module
 0001:000324e0       _acoshFunc                 100334e0 f    CIL library: CIL module
 0001:000325a0       _atanFunc                  100335a0 f    CIL library: CIL module
 0001:00032650       _asinFunc                  10033650 f    CIL library: CIL module
 0001:00032700       _acosFunc                  10033700 f    CIL library: CIL module
 0001:000327b0       _sqrtFunc                  100337b0 f    CIL library: CIL module
 0001:00032860       _rtreedepth                10033860 f    CIL library: CIL module
 0001:00032950       _rtreeBestIndex            10033950 f    CIL library: CIL module
 0001:00032b00       _rtreeColumn               10033b00 f    CIL library: CIL module
 0001:00032bc0       _fts3MatchinfoCheck        10033bc0 f    CIL library: CIL module
 0001:00032c10       _fts3FunctionArg           10033c10 f    CIL library: CIL module
 0001:00032d50       _fts3Appendf               10033d50 f    CIL library: CIL module
 0001:00032dc0       _fts3IsSpecialColumn       10033dc0 f    CIL library: CIL module
 0001:00032fe0       _sqlite3CantopenError      10033fe0 f    CIL library: CIL module
 0001:00033000       _sqlite3MisuseError        10034000 f    CIL library: CIL module
 0001:00033020       _sqlite3CorruptError       10034020 f    CIL library: CIL module
 0001:00033040       _sqlite3ParseUri           10034040 f    CIL library: CIL module
 0001:000335c0       _createCollation           100345c0 f    CIL library: CIL module
 0001:00033760       _sqlite3CreateFunc         10034760 f    CIL library: CIL module
 0001:00033900       _yy_syntax_error           10034900 f    CIL library: CIL module
 0001:00033920       _whereInfoFree             10034920 f    CIL library: CIL module
 0001:000339b0       _vtabBestIndex             100349b0 f    CIL library: CIL module
 0001:00033a80       _allocateIndexInfo         10034a80 f    CIL library: CIL module
 0001:00033be0       _whereSplit                10034be0 f    CIL library: CIL module
 0001:00033cc0       _vtabCallConstructor       10034cc0 f    CIL library: CIL module
 0001:00033f60       _createModule              10034f60 f    CIL library: CIL module
 0001:000340b0       _sqlite3TriggerInsertStep  100350b0 f    CIL library: CIL module
 0001:000341a0       _sqlite3DeleteTriggerStep  100351a0 f    CIL library: CIL module
 0001:00034240       _sqlite3IndexedByLookup    10035240 f    CIL library: CIL module
 0001:000342a0       _selectColumnsFromExprList 100352a0 f    CIL library: CIL module
 0001:00034520       _generateColumnTypes       10035520 f    CIL library: CIL module
 0001:000348e0       _checkForMultiColumnSelectError 100358e0 f    CIL library: CIL module
 0001:00034910       _sqlite3JoinType           10035910 f    CIL library: CIL module
 0001:00034a30       _corruptSchema             10035a30 f    CIL library: CIL module
 0001:00034ac0       _sqlite3AutoLoadExtensions 10035ac0 f    CIL library: CIL module
 0001:00034ba0       _sqlite3LoadExtension      10035ba0 f    CIL library: CIL module
 0001:00034dd0       _fkTriggerDelete           10035dd0 f    CIL library: CIL module
 0001:00034e30       _locateFkeyIndex           10035e30 f    CIL library: CIL module
 0001:00035090       _countFinalize             10036090 f    CIL library: CIL module
 0001:00035120       _totalFinalize             10036120 f    CIL library: CIL module
 0001:00035180       _avgFinalize               10036180 f    CIL library: CIL module
 0001:000351f0       _sumFinalize               100361f0 f    CIL library: CIL module
 0001:00035300       _zeroblobFunc              10036300 f    CIL library: CIL module
 0001:00035370       _compileoptionusedFunc     10036370 f    CIL library: CIL module
 0001:000353a0       _errlogFunc                100363a0 f    CIL library: CIL module
 0001:000353d0       _likeFunc                  100363d0 f    CIL library: CIL module
 0001:000355b0       _total_changes             100365b0 f    CIL library: CIL module
 0001:00035610       _changes                   10036610 f    CIL library: CIL module
 0001:00035670       _last_insert_rowid         10036670 f    CIL library: CIL module
 0001:000356d0       _randomFunc                100366d0 f    CIL library: CIL module
 0001:000357a0       _contextMalloc             100367a0 f    CIL library: CIL module
 0001:00035800       _roundFunc                 10036800 f    CIL library: CIL module
 0001:00035950       _absFunc                   10036950 f    CIL library: CIL module
 0001:00035a70       _lengthFunc                10036a70 f    CIL library: CIL module
 0001:00035b90       _sqlite3IsReadOnly         10036b90 f    CIL library: CIL module
 0001:00035c20       _sqlite3CreateForeignKey   10036c20 f    CIL library: CIL module
 0001:00035f90       _sqlite3ClearStatTables    10036f90 f    CIL library: CIL module
 0001:00036020       _sqliteViewResetAll        10037020 f    CIL library: CIL module
 0001:00036080       _createTableStmt           10037080 f    CIL library: CIL module
 0001:000362d0       _sqlite3CheckObjectName    100372d0 f    CIL library: CIL module
 0001:00036320       _sqlite3TwoPartName        10037320 f    CIL library: CIL module
 0001:000363b0       _sqlite3LocateTable        100373b0 f    CIL library: CIL module
 0001:00036430       _sqliteAuthBadReturnCode   10037430 f    CIL library: CIL module
 0001:00036450       _sqlite3FixSrcList         10037450 f    CIL library: CIL module
 0001:00036560       _stat3Get                  10037560 f    CIL library: CIL module
 0001:00036630       _isSystemTable             10037630 f    CIL library: CIL module
 0001:00036690       _whereOrName               10037690 f    CIL library: CIL module
 0001:000366d0       _sqlite3ExprListCheckLength 100376d0 f    CIL library: CIL module
 0001:00036700       _sqlite3ExprDup            10037700 f    CIL library: CIL module
 0001:00036720       _sqlite3ExprCheckHeight    10037720 f    CIL library: CIL module
 0001:00036750       _resolveOutOfRangeError    10037750 f    CIL library: CIL module
 0001:000367c0       _columnMallocFailure       100377c0 f    CIL library: CIL module
 0001:00036820       _columnMem                 10037820 f    CIL library: CIL module
 0001:00036890       _sqlite3InvalidFunction    10037890 f    CIL library: CIL module
 0001:00036b20       _vdbeSafety                10037b20 f    CIL library: CIL module
 0001:00036b40       _sqlite3VdbeTransferError  10037b40 f    CIL library: CIL module
 0001:00036c80       _displayP4                 10037c80 f    CIL library: CIL module
 0001:00036f70       _sqlite3VdbeChangeP4       10037f70 f    CIL library: CIL module
 0001:000370c0       _sqlite3VdbeChangeToNoop   100380c0 f    CIL library: CIL module
 0001:00037100       _vdbeFreeOpArray           10038100 f    CIL library: CIL module
 0001:00037150       _setDestPgsz               10038150 f    CIL library: CIL module
 0001:00037170       _decodeFlags               10038170 f    CIL library: CIL module
 0001:00037200       _freeSpace                 10038200 f    CIL library: CIL module
 0001:00037450       _defragmentPage            10038450 f    CIL library: CIL module
 0001:00037620       _walLimitSize              10038620 f    CIL library: CIL module
 0001:000376a0       _subjournalPage            100386a0 f    CIL library: CIL module
 0001:00037780       _winDlOpen                 10038780 f    CIL library: CIL module
 0001:00037800       _winFullPathname           10038800 f    CIL library: CIL module
 0001:00037990       _getTempname               10038990 f    CIL library: CIL module
 0001:00037bd0       _logIoerr                  10038bd0 f    CIL library: CIL module
 0001:00037c00       _getLastErrorMsg           10038c00 f    CIL library: CIL module
 0001:00037d20       _winMemShutdown            10038d20 f    CIL library: CIL module
 0001:00037d70       _winMemInit                10038d70 f    CIL library: CIL module
 0001:00037dd0       _winMemSize                10038dd0 f    CIL library: CIL module
 0001:00037e10       _winMemRealloc             10038e10 f    CIL library: CIL module
 0001:00037e70       _winMemFree                10038e70 f    CIL library: CIL module
 0001:00037eb0       _winMemMalloc              10038eb0 f    CIL library: CIL module
 0001:00037ef0       _logBadConnection          10038ef0 f    CIL library: CIL module
 0001:00037f10       _parseModifier             10038f10 f    CIL library: CIL module
 0001:000388d0       _upper_quartileFinalize    100398d0 f    CIL library: CIL module
 0001:00038940       _lower_quartileFinalize    10039940 f    CIL library: CIL module
 0001:00038990       _medianFinalize            10039990 f    CIL library: CIL module
 0001:000389e0       _reverseFunc               100399e0 f    CIL library: CIL module
 0001:00038b50       _rightFunc                 10039b50 f    CIL library: CIL module
 0001:00038c70       _leftFunc                  10039c70 f    CIL library: CIL module
 0001:00038d80       _strfilterFunc             10039d80 f    CIL library: CIL module
 0001:00038ef0       _padcFunc                  10039ef0 f    CIL library: CIL module
 0001:000391d0       _padrFunc                  1003a1d0 f    CIL library: CIL module
 0001:00039460       _padlFunc                  1003a460 f    CIL library: CIL module
 0001:000396e0       _properFunc                1003a6e0 f    CIL library: CIL module
 0001:00039830       _replicateFunc             1003a830 f    CIL library: CIL module
 0001:00039a20       _geomCallback              1003aa20 f    CIL library: CIL module
 0001:00039b30       _rtreenode                 1003ab30 f    CIL library: CIL module
 0001:00039d80       _scalarFunc                1003ad80 f    CIL library: CIL module
 0001:0003a110       _fts3auxColumnMethod       1003b110 f    CIL library: CIL module
 0001:0003a1f0       _fts3WriteExprList         1003b1f0 f    CIL library: CIL module
 0001:0003a290       _fts3ReadExprList          1003b290 f    CIL library: CIL module
 0001:0003a6b0       _yy_destructor             1003b6b0 f    CIL library: CIL module
 0001:0003a800       _sqlite3VtabCallConnect    1003b800 f    CIL library: CIL module
 0001:0003a930       _sqlite3DeleteTrigger      1003b930 f    CIL library: CIL module
 0001:0003a9b0       _sqlite3TriggerDeleteStep  1003b9b0 f    CIL library: CIL module
 0001:0003aa40       _sqlite3TriggerUpdateStep  1003ba40 f    CIL library: CIL module
 0001:0003aae0       _substExpr                 1003bae0 f    CIL library: CIL module
 0001:0003ac10       _generateColumnNames       1003bc10 f    CIL library: CIL module
 0001:0003ae20       _sqlite3TableAffinityStr   1003be20 f    CIL library: CIL module
 0001:0003aee0       _sqlite3FkDelete           1003bee0 f    CIL library: CIL module
 0001:0003b020       _sqlite3FkOldmask          1003c020 f    CIL library: CIL module
 0001:0003b170       _sqlite3RegisterLikeFunctions 1003c170 f    CIL library: CIL module
 0001:0003b250       _sqlite3RegisterBuiltinFunctions 1003c250 f    CIL library: CIL module
 0001:0003b270       _groupConcatFinalize       1003c270 f    CIL library: CIL module
 0001:0003b300       _loadExt                   1003c300 f    CIL library: CIL module
 0001:0003b440       _soundexFunc               1003c440 f    CIL library: CIL module
 0001:0003b7a0       _trimFunc                  1003c7a0 f    CIL library: CIL module
 0001:0003be60       _replaceFunc               1003ce60 f    CIL library: CIL module
 0001:0003c120       _hexFunc                   1003d120 f    CIL library: CIL module
 0001:0003c240       _quoteFunc                 1003d240 f    CIL library: CIL module
 0001:0003c550       _compileoptiongetFunc      1003d550 f    CIL library: CIL module
 0001:0003c5b0       _sourceidFunc              1003d5b0 f    CIL library: CIL module
 0001:0003c600       _versionFunc               1003d600 f    CIL library: CIL module
 0001:0003c650       _randomBlob                1003d650 f    CIL library: CIL module
 0001:0003c6d0       _lowerFunc                 1003d6d0 f    CIL library: CIL module
 0001:0003c7b0       _upperFunc                 1003d7b0 f    CIL library: CIL module
 0001:0003c890       _substrFunc                1003d890 f    CIL library: CIL module
 0001:0003cb90       _typeofFunc                1003db90 f    CIL library: CIL module
 0001:0003cc20       _sqlite3AddDefaultValue    1003dc20 f    CIL library: CIL module
 0001:0003cd20       _sqlite3DeleteTable        1003dd20 f    CIL library: CIL module
 0001:0003cec0       _sqlite3AuthCheck          1003dec0 f    CIL library: CIL module
 0001:0003cf50       _sqlite3AuthReadCol        1003df50 f    CIL library: CIL module
 0001:0003d010       _stat3Init                 1003e010 f    CIL library: CIL module
 0001:0003d130       _whereTempTriggers         1003e130 f    CIL library: CIL module
 0001:0003d1e0       _whereForeignKeys          1003e1e0 f    CIL library: CIL module
 0001:0003d240       _renameTriggerFunc         1003e240 f    CIL library: CIL module
 0001:0003d350       _renameParentFunc          1003e350 f    CIL library: CIL module
 0001:0003d5b0       _renameTableFunc           1003e5b0 f    CIL library: CIL module
 0001:0003d690       _sqlite3PExpr              1003e690 f    CIL library: CIL module
 0001:0003d710       _sqlite3ExprSetHeight      1003e710 f    CIL library: CIL module
 0001:0003d740       _resolveAlias              1003e740 f    CIL library: CIL module
 0001:0003dbe0       _vdbeSafetyNotNull         1003ebe0 f    CIL library: CIL module
 0001:0003dc20       _sqlite3VdbeDeleteObject   1003ec20 f    CIL library: CIL module
 0001:0003dd70       _dropCell                  1003ed70 f    CIL library: CIL module
 0001:0003de60       _zeroPage                  1003ee60 f    CIL library: CIL module
 0001:0003df20       _btreeInitPage             1003ef20 f    CIL library: CIL module
 0001:0003e110       _allocateSpace             1003f110 f    CIL library: CIL module
 0001:0003e310       _pager_write               1003f310 f    CIL library: CIL module
 0001:0003e500       _winGetLastError           1003f500 f    CIL library: CIL module
 0001:0003e520       _winDlError                1003f520 f    CIL library: CIL module
 0001:0003e540       _winLogErrorAtLine         1003f540 f    CIL library: CIL module
 0001:0003e5f0       _sqlite3MemGetWin32        1003f5f0 f    CIL library: CIL module
 0001:0003e600       _sqlite3SafetyCheckSickOrOk 1003f600 f    CIL library: CIL module
 0001:0003e640       _sqlite3SafetyCheckOk      1003f640 f    CIL library: CIL module
 0001:0003e6f0       _isDate                    1003f6f0 f    CIL library: CIL module
 0001:0003ede0       _sqlite3RtreeInit          1003fde0 f    CIL library: CIL module
 0001:0003ee60       _langidFromSelect          1003fe60 f    CIL library: CIL module
 0001:0003ee90       _sqlite3Fts3InitHashTable  1003fe90 f    CIL library: CIL module
 0001:0003f0b0       _yy_pop_parser_stack       100400b0 f    CIL library: CIL module
 0001:0003f0f0       _spanUnaryPrefix           100400f0 f    CIL library: CIL module
 0001:0003f180       _spanUnaryPostfix          10040180 f    CIL library: CIL module
 0001:0003f210       _spanBinaryExpr            10040210 f    CIL library: CIL module
 0001:0003f240       _spanExpr                  10040240 f    CIL library: CIL module
 0001:0003f2b0       _sqlite3UnlinkAndDeleteTrigger 100402b0 f    CIL library: CIL module
 0001:0003f370       _substExprList             10040370 f    CIL library: CIL module
 0001:0003f3c0       _addWhereTerm              100403c0 f    CIL library: CIL module
 0001:0003f490       _sqlite3SrcListLookup      10040490 f    CIL library: CIL module
 0001:0003f550       _sqlite3SchemaClear        10040550 f    CIL library: CIL module
 0001:0003f6e0       _sqlite3UnlinkAndDeleteTable 100406e0 f    CIL library: CIL module
 0001:0003f770       _sqlite3ResetAllSchemasOfConnection 10040770 f    CIL library: CIL module
 0001:0003f7f0       _sqlite3ResetOneSchema     100407f0 f    CIL library: CIL module
 0001:0003f820       _sqlite3AuthRead           10040820 f    CIL library: CIL module
 0001:0003f900       _sqlite3AlterFunctions     10040900 f    CIL library: CIL module
 0001:0003f920       _sqlite3ExprFunction       10040920 f    CIL library: CIL module
 0001:0003f980       _sqlite3ResolveOrderGroupBy 10040980 f    CIL library: CIL module
 0001:0003fa30       _lookupName                10040a30 f    CIL library: CIL module
 0001:00040070       _vdbeUnbind                10041070 f    CIL library: CIL module
 0001:000401c0       _sqlite3VdbeDelete         100411c0 f    CIL library: CIL module
 0001:00040210       _modifyPagePointer         10041210 f    CIL library: CIL module
 0001:00040460       _pageReinit                10041460 f    CIL library: CIL module
 0001:00040480       _sqlite3PagerWrite         10041480 f    CIL library: CIL module
 0001:000406a0       _winAccess                 100416a0 f    CIL library: CIL module
 0001:00040880       _winDelete                 10041880 f    CIL library: CIL module
 0001:00040a10       _winOpen                   10041a10 f    CIL library: CIL module
 0001:00040dc0       _unlockReadLock            10041dc0 f    CIL library: CIL module
 0001:00040e40       _winFileSize               10041e40 f    CIL library: CIL module
 0001:00040ec0       _winSync                   10041ec0 f    CIL library: CIL module
 0001:00040f10       _winWrite                  10041f10 f    CIL library: CIL module
 0001:00041080       _winRead                   10042080 f    CIL library: CIL module
 0001:000411a0       _winClose                  100421a0 f    CIL library: CIL module
 0001:00041220       _seekWinFile               10042220 f    CIL library: CIL module
 0001:00041290       _sqlite3MemSetDefault      10042290 f    CIL library: CIL module
 0001:000412a0       _sqlite3MallocInit         100422a0 f    CIL library: CIL module
 0001:000413c0       _strftimeFunc              100423c0 f    CIL library: CIL module
 0001:00041910       _dateFunc                  10042910 f    CIL library: CIL module
 0001:00041a40       _timeFunc                  10042a40 f    CIL library: CIL module
 0001:00041b70       _datetimeFunc              10042b70 f    CIL library: CIL module
 0001:00041cb0       _juliandayFunc             10042cb0 f    CIL library: CIL module
 0001:00041f90       _yy_accept                 10042f90 f    CIL library: CIL module
 0001:00041fd0       _yyStackOverflow           10042fd0 f    CIL library: CIL module
 0001:00042020       _sqlite3ParserFree         10043020 f    CIL library: CIL module
 0001:00042060       _sqliteProcessJoin         10043060 f    CIL library: CIL module
 0001:00042290       _sqlite3SchemaGet          10043290 f    CIL library: CIL module
 0001:00042370       _resolveExprStep           10043370 f    CIL library: CIL module
 0001:00042860       _backupOnePage             10043860 f    CIL library: CIL module
 0001:00042ab0       _sqlite3BtreeUpdateMeta    10043ab0 f    CIL library: CIL module
 0001:00042b30       _copyPayload               10043b30 f    CIL library: CIL module
 0001:00042b60       _newDatabase               10043b60 f    CIL library: CIL module
 0001:00042c50       _sqlite3PCacheSetDefault   10043c50 f    CIL library: CIL module
 0001:00042c70       _sqlite3PcacheInitialize   10043c70 f    CIL library: CIL module
 0001:00042d50       _winShmPurge               10043d50 f    CIL library: CIL module
 0001:00042e20       _winUnlock                 10043e20 f    CIL library: CIL module
 0001:00042f00       _winLock                   10043f00 f    CIL library: CIL module
 0001:00043160       _winTruncate               10044160 f    CIL library: CIL module
 0001:00043220       _sqlite3OsInit             10044220 f    CIL library: CIL module
 0001:00043250       _ctimestampFunc            10044250 f    CIL library: CIL module
 0001:00043270       _cdateFunc                 10044270 f    CIL library: CIL module
 0001:00043290       _ctimeFunc                 10044290 f    CIL library: CIL module
 0001:00043310       _yy_shift                  10044310 f    CIL library: CIL module
 0001:00043350       _sqlite3ResolveExprNames   10044350 f    CIL library: CIL module
 0001:00043420       _resolveOrderGroupBy       10044420 f    CIL library: CIL module
 0001:00043570       _resolveOrderByTermToExprList 10044570 f    CIL library: CIL module
 0001:00043620       _sqlite3BackupUpdate       10044620 f    CIL library: CIL module
 0001:00043690       _pager_write_pagelist      10044690 f    CIL library: CIL module
 0001:00043810       _pager_playback_one_page   10044810 f    CIL library: CIL module
 0001:00043bd0       _winShmUnmap               10044bd0 f    CIL library: CIL module
 0001:00043c90       _winOpenSharedMemory       10044c90 f    CIL library: CIL module
 0001:00043fa0       _winFileControl            10044fa0 f    CIL library: CIL module
 0001:00044150       _sqlite3RegisterDateTimeFunctions 10045150 f    CIL library: CIL module
 0001:00044170       _sqlite3RegisterGlobalFunctions 10045170 f    CIL library: CIL module
 0001:000441d0       _resolveAttachExpr         100451d0 f    CIL library: CIL module
 0001:00044220       _resolveCompoundOrderBy    10045220 f    CIL library: CIL module
 0001:000444f0       _pager_playback            100454f0 f    CIL library: CIL module
 0001:00044a60       _resolveSelectStep         10045a60 f    CIL library: CIL module
 0001:00044ef0       _fts3StringAppend          10045ef0 f    CIL library: CIL module
 0001:00044f80       _blobGrowBuffer            10045f80 f    CIL library: CIL module
 0001:00044fd0       _fts3MsrBufferData         10045fd0 f    CIL library: CIL module
 0001:00045030       _fts3NodeAddTerm           10046030 f    CIL library: CIL module
 0001:000452f0       _sqlite3Fts3SegReaderPending 100462f0 f    CIL library: CIL module
 0001:00045570       _fts3PendingListAppendVarint 10046570 f    CIL library: CIL module
 0001:00045650       _simpleNext                10046650 f    CIL library: CIL module
 0001:00045780       _sqlite3Fts3InitTokenizer  10046780 f    CIL library: CIL module
 0001:00045920       _porterNext                10046920 f    CIL library: CIL module
 0001:00045a40       _fts3ReallocOrFree         10046a40 f    CIL library: CIL module
 0001:00045a90       _fts3auxGrowStatArray      10046a90 f    CIL library: CIL module
 0001:00045af0       _fts3ScanInteriorNode      10046af0 f    CIL library: CIL module
 0001:00045dc0       _sqlite3VtabMakeWritable   10046dc0 f    CIL library: CIL module
 0001:00045e50       _sqlite3_get_table_cb      10046e50 f    CIL library: CIL module
 0001:000460b0       _sqlite3ResolveSelectNames 100470b0 f    CIL library: CIL module
 0001:000460e0       _walIndexPage              100470e0 f    CIL library: CIL module
 0001:00046200       _winShmMap                 10047200 f    CIL library: CIL module
 0001:00046420       _sqlite3DbRealloc          10047420 f    CIL library: CIL module
 0001:00046500       _fts3SnippetText           10047500 f    CIL library: CIL module
 0001:000467a0       _fts3IncrmergeHintPush     100477a0 f    CIL library: CIL module
 0001:00046870       _fts3AppendToNode          10047870 f    CIL library: CIL module
 0001:000469c0       _nodeReaderNext            100479c0 f    CIL library: CIL module
 0001:00046ae0       _fts3PendingListAppend     10047ae0 f    CIL library: CIL module
 0001:00046c20       _getNextString             10047c20 f    CIL library: CIL module
 0001:00046f00       _growVTrans                10047f00 f    CIL library: CIL module
 0001:00046f60       _addModuleArgument         10047f60 f    CIL library: CIL module
 0001:00046fe0       _sqlite3SrcListEnlarge     10047fe0 f    CIL library: CIL module
 0001:000470e0       _sqlite3ArrayAllocate      100480e0 f    CIL library: CIL module
 0001:00047150       _sqlite3AddColumn          10048150 f    CIL library: CIL module
 0001:00047280       _addAggInfoFunc            10048280 f    CIL library: CIL module
 0001:000472b0       _addAggInfoColumn          100482b0 f    CIL library: CIL module
 0001:000472e0       _sqlite3ExprListAppend     100482e0 f    CIL library: CIL module
 0001:00047380       _sqlite3ExprAssignVarNumber 10048380 f    CIL library: CIL module
 0001:000476a0       _growOpArray               100486a0 f    CIL library: CIL module
 0001:00047720       _walHashGet                10048720 f    CIL library: CIL module
 0001:00047780       _sqlite3DbReallocOrFree    10048780 f    CIL library: CIL module
 0001:000477a0       _sqlite3Fts3CacheDeferredDoclists 100487a0 f    CIL library: CIL module
 0001:00047a90       _nodeReaderInit            10048a90 f    CIL library: CIL module
 0001:00047ae0       _fts3PendingTermsAddOne    10048ae0 f    CIL library: CIL module
 0001:00047bd0       _getNextNode               10048bd0 f    CIL library: CIL module
 0001:00047ea0       _exprAnalyzeOrTerm         10048ea0 f    CIL library: CIL module
 0001:00048460       _sqlite3VtabBegin          10049460 f    CIL library: CIL module
 0001:000484f0       _sqlite3VtabCallCreate     100494f0 f    CIL library: CIL module
 0001:00048600       _addArgumentToVtab         10049600 f    CIL library: CIL module
 0001:00048660       _selectExpander            10049660 f    CIL library: CIL module
 0001:00048df0       _sqlite3SelectNew          10049df0 f    CIL library: CIL module
 0001:00048f90       _sqlite3SrcListAppend      10049f90 f    CIL library: CIL module
 0001:00049040       _sqlite3IdListAppend       1004a040 f    CIL library: CIL module
 0001:000490b0       _sqlite3AddCheckConstraint 1004a0b0 f    CIL library: CIL module
 0001:00049110       _sqlite3TableLock          1004a110 f    CIL library: CIL module
 0001:00049200       _analyzeAggregate          1004a200 f    CIL library: CIL module
 0001:000494f0       _vdbeSorterIterRead        1004a4f0 f    CIL library: CIL module
 0001:00049650       _sqlite3VdbeAddOpList      1004a650 f    CIL library: CIL module
 0001:00049710       _sqlite3VdbeMakeLabel      1004a710 f    CIL library: CIL module
 0001:00049770       _sqlite3VdbeAddOp3         1004a770 f    CIL library: CIL module
 0001:000497d0       _sqlite3VdbeMemGrow        1004a7d0 f    CIL library: CIL module
 0001:000498f0       _sqlite3WalRead            1004a8f0 f    CIL library: CIL module
 0001:00049ab0       _walIteratorInit           1004aab0 f    CIL library: CIL module
 0001:00049c70       _walCleanupHash            1004ac70 f    CIL library: CIL module
 0001:00049d20       _readDbPage                1004ad20 f    CIL library: CIL module
 0001:00049e40       _fts3TruncateNode          1004ae40 f    CIL library: CIL module
 0001:0004a060       _fts3PendingTermsAdd       1004b060 f    CIL library: CIL module
 0001:0004a1c0       _sqlite3VtabArgInit        1004b1c0 f    CIL library: CIL module
 0001:0004a1e0       _targetSrcList             1004b1e0 f    CIL library: CIL module
 0001:0004a2c0       _sqlite3SelectExpand       1004b2c0 f    CIL library: CIL module
 0001:0004a2f0       _flattenSubquery           1004b2f0 f    CIL library: CIL module
 0001:0004a8d0       _fkActionTrigger           1004b8d0 f    CIL library: CIL module
 0001:0004b400       _sqlite3SrcListAppendFromTerm 1004c400 f    CIL library: CIL module
 0001:0004b510       _sqlite3ExprAnalyzeAggregates 1004c510 f    CIL library: CIL module
 0001:0004b550       _sqlite3ExprCodeMove       1004c550 f    CIL library: CIL module
 0001:0004b680       _sqlite3VdbeSorterRowkey   1004c680 f    CIL library: CIL module
 0001:0004b6f0       _vdbeSorterIterVarint      1004c6f0 f    CIL library: CIL module
 0001:0004b7a0       _sqlite3VdbeList           1004c7a0 f    CIL library: CIL module
 0001:0004bb20       _sqlite3VdbeAddOp4Int      1004cb20 f    CIL library: CIL module
 0001:0004bbd0       _sqlite3VdbeAddParseSchemaOp 1004cbd0 f    CIL library: CIL module
 0001:0004bca0       _sqlite3VdbeAddOp4         1004cca0 f    CIL library: CIL module
 0001:0004bd10       _sqlite3VdbeAddOp2         1004cd10 f    CIL library: CIL module
 0001:0004bd60       _sqlite3VdbeAddOp1         1004cd60 f    CIL library: CIL module
 0001:0004bdb0       _sqlite3VdbeAddOp0         1004cdb0 f    CIL library: CIL module
 0001:0004be00       _sqlite3VdbeMemNulTerminate 1004ce00 f    CIL library: CIL module
 0001:0004be50       _sqlite3VdbeMemMakeWriteable 1004ce50 f    CIL library: CIL module
 0001:0004bec0       _sqlite3WalSavepointUndo   1004cec0 f    CIL library: CIL module
 0001:0004bf00       _sqlite3WalUndo            1004cf00 f    CIL library: CIL module
 0001:0004bf90       _walCheckpoint             1004cf90 f    CIL library: CIL module
 0001:0004c320       _walIndexAppend            1004d320 f    CIL library: CIL module
 0001:0004c420       _pagerUndoCallback         1004d420 f    CIL library: CIL module
 0001:0004c500       _sqlite3VdbeMemTranslate   1004d500 f    CIL library: CIL module
 0001:0004c960       _fts3InsertTerms           1004d960 f    CIL library: CIL module
 0001:0004c9f0       _sqlite3WhereEnd           1004d9f0 f    CIL library: CIL module
 0001:0004cf80       _explainOneScan            1004df80 f    CIL library: CIL module
 0001:0004d200       _codeApplyAffinity         1004e200 f    CIL library: CIL module
 0001:0004d270       _explainSimpleCount        1004e270 f    CIL library: CIL module
 0001:0004d2d0       _finalizeAggFunctions      1004e2d0 f    CIL library: CIL module
 0001:0004d3f0       _sqlite3GetVdbe            1004e3f0 f    CIL library: CIL module
 0001:0004d420       _explainComposite          1004e420 f    CIL library: CIL module
 0001:0004d4b0       _explainTempTable          1004e4b0 f    CIL library: CIL module
 0001:0004d4f0       _codeDistinct              1004e4f0 f    CIL library: CIL module
 0001:0004d5f0       _codeOffset                1004e5f0 f    CIL library: CIL module
 0001:0004d650       _returnSingleInt           1004e650 f    CIL library: CIL module
 0001:0004d7c0       _sqlite3CompleteInsertion  1004e7c0 f    CIL library: CIL module
 0001:0004da30       _autoIncStep               1004ea30 f    CIL library: CIL module
 0001:0004da80       _readsTable                1004ea80 f    CIL library: CIL module
 0001:0004db70       _sqlite3OpenTable          1004eb70 f    CIL library: CIL module
 0001:0004dc30       _sqlite3FkActions          1004ec30 f    CIL library: CIL module
 0001:0004dc80       _sqlite3HaltConstraint     1004ec80 f    CIL library: CIL module
 0001:0004dce0       _sqlite3Savepoint          1004ece0 f    CIL library: CIL module
 0001:0004dd60       _sqlite3RollbackTransaction 1004ed60 f    CIL library: CIL module
 0001:0004ddb0       _sqlite3CommitTransaction  1004edb0 f    CIL library: CIL module
 0001:0004de00       _sqlite3BeginTransaction   1004ee00 f    CIL library: CIL module
 0001:0004df20       _destroyRootPage           1004ef20 f    CIL library: CIL module
 0001:0004e030       _sqlite3ChangeCookie       1004f030 f    CIL library: CIL module
 0001:0004e130       _sqlite3OpenMasterTable    1004f130 f    CIL library: CIL module
 0001:0004e210       _codeTableLocks            1004f210 f    CIL library: CIL module
 0001:0004e350       _loadAnalysis              1004f350 f    CIL library: CIL module
 0001:0004e3c0       _openStatTable             1004f3c0 f    CIL library: CIL module
 0001:0004e5d0       _sqlite3MinimumFileFormat  1004f5d0 f    CIL library: CIL module
 0001:0004e770       _reloadTableSchema         1004f770 f    CIL library: CIL module
 0001:0004ea00       _sqlite3ExprAnalyzeAggList 1004fa00 f    CIL library: CIL module
 0001:0004ea70       _sqlite3ExprCodeExprList   1004fa70 f    CIL library: CIL module
 0001:0004eb20       _sqlite3ExprCode           1004fb20 f    CIL library: CIL module
 0001:0004eb70       _sqlite3ExprCodeCopy       1004fb70 f    CIL library: CIL module
 0001:0004ebe0       _codeReal                  1004fbe0 f    CIL library: CIL module
 0001:0004ec60       _sqlite3CodeOnce           1004fc60 f    CIL library: CIL module
 0001:0004ece0       _sqlite3ExprCodeIsNullJump 1004fce0 f    CIL library: CIL module
 0001:0004ed30       _vdbeSorterIterNext        1004fd30 f    CIL library: CIL module
 0001:0004edb0       _sqlite3VdbeChangeEncoding 1004fdb0 f    CIL library: CIL module
 0001:0004edd0       _walIndexRecover           1004fdd0 f    CIL library: CIL module
 0001:0004f180       _pagerRollbackWal          10050180 f    CIL library: CIL module
 0001:0004f1f0       _sqlite3Utf8to16           100501f0 f    CIL library: CIL module
 0001:0004f270       _sqlite3Utf16to8           10050270 f    CIL library: CIL module
 0001:0004f450       _sqlite3VtabFinishParse    10050450 f    CIL library: CIL module
 0001:0004f620       _sqlite3Vacuum             10050620 f    CIL library: CIL module
 0001:0004f690       _generateOutputSubroutine  10050690 f    CIL library: CIL module
 0001:0004f9f0       _computeLimitRegisters     100509f0 f    CIL library: CIL module
 0001:0004fb80       _generateSortTail          10050b80 f    CIL library: CIL module
 0001:00050160       _pushOntoSorter            10051160 f    CIL library: CIL module
 0001:000504f0       _flagPragma                100514f0 f    CIL library: CIL module
 0001:000506a0       _sqlite3AutoincrementEnd   100516a0 f    CIL library: CIL module
 0001:00050a80       _sqlite3AutoincrementBegin 10051a80 f    CIL library: CIL module
 0001:00050e50       _destroyTable              10051e50 f    CIL library: CIL module
 0001:00050ee0       _codeAttach                10051ee0 f    CIL library: CIL module
 0001:000510d0       _sqlite3ExprCodeAndCache   100520d0 f    CIL library: CIL module
 0001:00051170       _codeInteger               10052170 f    CIL library: CIL module
 0001:000512a0       _vdbeSorterIterInit        100522a0 f    CIL library: CIL module
 0001:000513c0       _sqlite3VdbeExpandSql      100523c0 f    CIL library: CIL module
 0001:000516d0       _bindText                  100526d0 f    CIL library: CIL module
 0001:000517c0       _sqlite3VdbeMemStringify   100527c0 f    CIL library: CIL module
 0001:00051860       _walIndexReadHdr           10052860 f    CIL library: CIL module
 0001:000519a0       _pagerPlaybackSavepoint    100529a0 f    CIL library: CIL module
 0001:00051c70       _selectInnerLoop           10052c70 f    CIL library: CIL module
 0001:00052090       _applyAffinity             10053090 f    CIL library: CIL module
 0001:00052170       _sqlite3ValueText          10053170 f    CIL library: CIL module
 0001:00052220       _sqlite3MemCompare         10053220 f    CIL library: CIL module
 0001:000524c0       _sqlite3WalCheckpoint      100534c0 f    CIL library: CIL module
 0001:00052650       _walTryBeginRead           10053650 f    CIL library: CIL module
 0001:00052940       _sqlite3WalClose           10053940 f    CIL library: CIL module
 0001:00052a60       _sqlite3PagerCloseWal      10053a60 f    CIL library: CIL module
 0001:00052b20       _sqlite3PagerCheckpoint    10053b20 f    CIL library: CIL module
 0001:00052b70       _sqlite3PagerSavepoint     10053b70 f    CIL library: CIL module
 0001:00052c40       _sqlite3PagerRollback      10053c40 f    CIL library: CIL module
 0001:00052d00       _pagerUnlockAndRollback    10053d00 f    CIL library: CIL module
 0001:00052e40       _callCollNeeded            10053e40 f    CIL library: CIL module
 0001:00052f20       _sqlite3ValueApplyAffinity 10053f20 f    CIL library: CIL module
 0001:00053130       _sqlite3VdbeGetValue       10054130 f    CIL library: CIL module
 0001:00053180       _sqlite3VdbeRecordCompare  10054180 f    CIL library: CIL module
 0001:00053380       _sqlite3ValueFromExpr      10054380 f    CIL library: CIL module
 0001:000536b0       _sqlite3BtreeCheckpoint    100546b0 f    CIL library: CIL module
 0001:00053720       _sqlite3BtreeSavepoint     10054720 f    CIL library: CIL module
 0001:000537d0       _walRestartLog             100547d0 f    CIL library: CIL module
 0001:00053900       _sqlite3WalBeginReadTransaction 10054900 f    CIL library: CIL module
 0001:00053920       _pagerUnlockIfUnused       10054920 f    CIL library: CIL module
 0001:00053940       _sqlite3PagerClose         10054940 f    CIL library: CIL module
 0001:00053a90       _pagerBeginReadTransaction 10054a90 f    CIL library: CIL module
 0001:00053c60       _sqlite3Checkpoint         10054c60 f    CIL library: CIL module
 0001:00053e70       _valueFromExpr             10054e70 f    CIL library: CIL module
 0001:00053f20       _sqlite3ColumnDefault      10054f20 f    CIL library: CIL module
 0001:00053fe0       _sqlite3GenerateIndexKey   10054fe0 f    CIL library: CIL module
 0001:00054280       _sqlite3GenerateRowIndexDelete 10055280 f    CIL library: CIL module
 0001:00054340       _sqlite3GetCollSeq         10055340 f    CIL library: CIL module
 0001:000543e0       _sqlite3LocateCollSeq      100553e0 f    CIL library: CIL module
 0001:00054460       _sqlite3AddCollateType     10055460 f    CIL library: CIL module
 0001:000544f0       _sqlite3AlterFinishAddColumn 100554f0 f    CIL library: CIL module
 0001:00054770       _sqlite3ExprCodeGetColumnOfTable 10055770 f    CIL library: CIL module
 0001:00054810       _sqlite3ExprSetCollByToken 10055810 f    CIL library: CIL module
 0001:00054860       _vdbeSorterCompare         10055860 f    CIL library: CIL module
 0001:000549b0       _sqlite3VdbeCloseStatement 100559b0 f    CIL library: CIL module
 0001:00054ab0       _sqlite3WalFrames          10055ab0 f    CIL library: CIL module
 0001:00054f00       _sqlite3PagerAcquire       10055f00 f    CIL library: CIL module
 0001:000550b0       _sqlite3PagerSharedLock    100560b0 f    CIL library: CIL module
 0001:00055330       _pagerWalFrames            10056330 f    CIL library: CIL module
 0001:000555f0       _sqlite3WalDefaultHook     100565f0 f    CIL library: CIL module
 0001:00055630       _whereKeyStats             10056630 f    CIL library: CIL module
 0001:000559d0       _sqlite3CheckCollSeq       100569d0 f    CIL library: CIL module
 0001:00055a20       _sqlite3IndexKeyinfo       10056a20 f    CIL library: CIL module
 0001:00055ad0       _sqlite3RefillIndex        10056ad0 f    CIL library: CIL module
 0001:00055ea0       _analyzeOneTable           10056ea0 f    CIL library: CIL module
 0001:00057850       _sqlite3ExprCodeGetColumn  10058850 f    CIL library: CIL module
 0001:00057900       _sqlite3ExprCollSeq        10058900 f    CIL library: CIL module
 0001:000579e0       _sqlite3VdbeSorterCompare  100589e0 f    CIL library: CIL module
 0001:00057a20       _vdbeSorterMerge           10058a20 f    CIL library: CIL module
 0001:00057ae0       _vdbeSorterDoCompare       10058ae0 f    CIL library: CIL module
 0001:00057b90       _btreeGetPage              10058b90 f    CIL library: CIL module
 0001:00057be0       _ptrmapGet                 10058be0 f    CIL library: CIL module
 0001:00057d10       _ptrmapPut                 10058d10 f    CIL library: CIL module
 0001:00057e50       _sqlite3PagerSetJournalMode 10058e50 f    CIL library: CIL module
 0001:00057f60       _sqlite3PagerMovepage      10058f60 f    CIL library: CIL module
 0001:00058120       _pager_incr_changecounter  10059120 f    CIL library: CIL module
 0001:000582a0       _pagerStress               100592a0 f    CIL library: CIL module
 0001:00058400       _whereEqualScanEst         10059400 f    CIL library: CIL module
 0001:00058520       _whereRangeScanEst         10059520 f    CIL library: CIL module
 0001:000586e0       _isSortingIndex            100596e0 f    CIL library: CIL module
 0001:000588f0       _findIndexCol              100598f0 f    CIL library: CIL module
 0001:00058970       _exprCommute               10059970 f    CIL library: CIL module
 0001:00058a10       _updateAccumulator         10059a10 f    CIL library: CIL module
 0001:00058ec0       _multiSelectCollSeq        10059ec0 f    CIL library: CIL module
 0001:00058f10       _selectAddColumnTypeAndCollation 10059f10 f    CIL library: CIL module
 0001:00059070       _keyInfoFromExprList       1005a070 f    CIL library: CIL module
 0001:00059110       _sqlite3OpenTableAndIndices 1005a110 f    CIL library: CIL module
 0001:000592c0       _fkLookupParent            1005a2c0 f    CIL library: CIL module
 0001:00059b40       _sqlite3BinaryCompareCollSeq 1005ab40 f    CIL library: CIL module
 0001:00059b80       _sqlite3VdbeSorterNext     1005ab80 f    CIL library: CIL module
 0001:00059c40       _vdbeSorterInitMerge       1005ac40 f    CIL library: CIL module
 0001:00059ce0       _vdbeSorterSort            1005ace0 f    CIL library: CIL module
 0001:00059dc0       _checkPtrmap               1005adc0 f    CIL library: CIL module
 0001:00059e50       _freePage2                 1005ae50 f    CIL library: CIL module
 0001:0005a1b0       _allocateBtreePage         1005b1b0 f    CIL library: CIL module
 0001:0005a970       _getOverflowPage           1005b970 f    CIL library: CIL module
 0001:0005ab10       _lockBtree                 1005bb10 f    CIL library: CIL module
 0001:0005af00       _getAndInitPage            1005bf00 f    CIL library: CIL module
 0001:0005af90       _ptrmapPutOvflPtr          1005bf90 f    CIL library: CIL module
 0001:0005aff0       _sqlite3PagerCommitPhaseOne 1005bff0 f    CIL library: CIL module
 0001:0005b200       _sqlite3PagerOpen          1005c200 f    CIL library: CIL module
 0001:0005b6b0       _whereInScanEst            1005c6b0 f    CIL library: CIL module
 0001:0005b760       _constructAutomaticIndex   1005c760 f    CIL library: CIL module
 0001:0005bf80       _findTerm                  1005cf80 f    CIL library: CIL module
 0001:0005c0f0       _resetAccumulator          1005d0f0 f    CIL library: CIL module
 0001:0005c2f0       _selectAddSubqueryTypeInfo 1005d2f0 f    CIL library: CIL module
 0001:0005c380       _multiSelectOrderBy        1005d380 f    CIL library: CIL module
 0001:0005de00       _multiSelect               1005ee00 f    CIL library: CIL module
 0001:0005e5c0       _sqlite3CodeSubselect      1005f5c0 f    CIL library: CIL module
 0001:0005eac0       _codeCompare               1005fac0 f    CIL library: CIL module
 0001:0005eb90       _vdbeSorterListToPMA       1005fb90 f    CIL library: CIL module
 0001:0005ecd0       _checkList                 1005fcd0 f    CIL library: CIL module
 0001:0005ef00       _insertCell                1005ff00 f    CIL library: CIL module
 0001:0005f0c0       _fillInCell                100600c0 f    CIL library: CIL module
 0001:0005f440       _clearCell                 10060440 f    CIL library: CIL module
 0001:0005f620       _freePage                  10060620 f    CIL library: CIL module
 0001:0005f640       _moveToChild               10060640 f    CIL library: CIL module
 0001:0005f6e0       _accessPayload             100606e0 f    CIL library: CIL module
 0001:0005fa30       _setChildPtrmaps           10060a30 f    CIL library: CIL module
 0001:0005fbc0       _sqlite3BtreeBeginTrans    10060bc0 f    CIL library: CIL module
 0001:0005fe90       _sqlite3BtreeOpen          10060e90 f    CIL library: CIL module
 0001:000604d0       _isDistinctRedundant       100614d0 f    CIL library: CIL module
 0001:000605c0       _isDistinctIndex           100615c0 f    CIL library: CIL module
 0001:00060720       _sqlite3SelectAddTypeInfo  10061720 f    CIL library: CIL module
 0001:00060750       _sqlite3OpenTempDatabase   10061750 f    CIL library: CIL module
 0001:000607e0       _sqlite3VdbeSorterRewind   100617e0 f    CIL library: CIL module
 0001:00060ae0       _sqlite3VdbeSorterWrite    10061ae0 f    CIL library: CIL module
 0001:00060b90       _findBtree                 10061b90 f    CIL library: CIL module
 0001:00060c60       _sqlite3BtreeSetVersion    10061c60 f    CIL library: CIL module
 0001:00060e80       _checkTreePage             10061e80 f    CIL library: CIL module
 0001:00061620       _clearDatabasePage         10062620 f    CIL library: CIL module
 0001:000617e0       _copyNodeContent           100627e0 f    CIL library: CIL module
 0001:00061890       _balance_quick             10062890 f    CIL library: CIL module
 0001:00061a50       _moveToRightmost           10062a50 f    CIL library: CIL module
 0001:00061ae0       _moveToLeftmost            10062ae0 f    CIL library: CIL module
 0001:00061b60       _moveToRoot                10062b60 f    CIL library: CIL module
 0001:00061d20       _sqlite3BtreeKey           10062d20 f    CIL library: CIL module
 0001:00061d40       _relocatePage              10062d40 f    CIL library: CIL module
 0001:00061e80       _saveCursorPosition        10062e80 f    CIL library: CIL module
 0001:00061f80       _bestBtreeIndex            10062f80 f    CIL library: CIL module
 0001:000628e0       _sqlite3SelectPrep         100638e0 f    CIL library: CIL module
 0001:00062960       _sqlite3ResultSetOfSelect  10063960 f    CIL library: CIL module
 0001:00062a40       _sqlite3CodeVerifySchema   10063a40 f    CIL library: CIL module
 0001:00062ae0       _sqlite3ViewGetColumnNames 10063ae0 f    CIL library: CIL module
 0001:00062c40       _sqlite3FindInIndex        10063c40 f    CIL library: CIL module
 0001:00063100       _sqlite3BtreeIntegrityCheck 10064100 f    CIL library: CIL module
 0001:00063580       _sqlite3BtreeCount         10064580 f    CIL library: CIL module
 0001:00063750       _btreeCreateTable          10064750 f    CIL library: CIL module
 0001:000639b0       _balance_deeper            100649b0 f    CIL library: CIL module
 0001:00063b00       _balance_nonroot           10064b00 f    CIL library: CIL module
 0001:00064b70       _sqlite3BtreeMovetoUnpacked 10065b70 f    CIL library: CIL module
 0001:00064f40       _sqlite3BtreeLast          10065f40 f    CIL library: CIL module
 0001:00064f80       _sqlite3BtreeFirst         10065f80 f    CIL library: CIL module
 0001:00064fb0       _incrVacuumStep            10065fb0 f    CIL library: CIL module
 0001:000653e0       _btreeMoveto               100663e0 f    CIL library: CIL module
 0001:000654f0       _saveAllCursors            100664f0 f    CIL library: CIL module
 0001:00065530       _bestIndex                 10066530 f    CIL library: CIL module
 0001:000655c0       _bestOrClauseIndex         100665c0 f    CIL library: CIL module
 0001:00065840       _sqlite3BeginTrigger       10066840 f    CIL library: CIL module
 0001:00065c50       _xferOptimization          10066c50 f    CIL library: CIL module
 0001:00066240       _sqlite3BeginWriteOperation 10067240 f    CIL library: CIL module
 0001:00066270       _sqlite3CodeVerifyNamedSchema 10067270 f    CIL library: CIL module
 0001:000662c0       _sqlite3DropIndex          100672c0 f    CIL library: CIL module
 0001:00066490       _sqlite3CreateIndex        10067490 f    CIL library: CIL module
 0001:00066d50       _sqlite3AddPrimaryKey      10067d50 f    CIL library: CIL module
 0001:00066ef0       _sqlite3StartTable         10067ef0 f    CIL library: CIL module
 0001:00067310       _analyzeTable              10068310 f    CIL library: CIL module
 0001:000673c0       _analyzeDatabase           100683c0 f    CIL library: CIL module
 0001:00067520       _sqlite3AlterBeginAddColumn 10068520 f    CIL library: CIL module
 0001:00067700       _sqlite3AlterRenameTable   10068700 f    CIL library: CIL module
 0001:00067a60       _sqlite3ExprCodeIN         10068a60 f    CIL library: CIL module
 0001:00067e10       _sqlite3BtreeClearTable    10068e10 f    CIL library: CIL module
 0001:00067ea0       _sqlite3BtreeCreateTable   10068ea0 f    CIL library: CIL module
 0001:00067ef0       _balance                   10068ef0 f    CIL library: CIL module
 0001:000680a0       _sqlite3BtreeRollback      100690a0 f    CIL library: CIL module
 0001:00068300       _autoVacuumCommit          10069300 f    CIL library: CIL module
 0001:00068550       _sqlite3BtreeIncrVacuum    10069550 f    CIL library: CIL module
 0001:000685f0       _sqlite3BtreeClose         100695f0 f    CIL library: CIL module
 0001:000686d0       _btreeRestoreCursorPosition 100696d0 f    CIL library: CIL module
 0001:00068730       _sqlite3RollbackAll        10069730 f    CIL library: CIL module
 0001:00068800       _sqlite3LeaveMutexAndCloseZombie 10069800 f    CIL library: CIL module
 0001:00068c20       _sqlite3Close              10069c20 f    CIL library: CIL module
 0001:00068cf0       _bestVirtualIndex          10069cf0 f    CIL library: CIL module
 0001:00068ee0       _sqlite3VtabBeginParse     10069ee0 f    CIL library: CIL module
 0001:00068fd0       _sqlite3DropTriggerPtr     10069fd0 f    CIL library: CIL module
 0001:00069210       _sqlite3DropTrigger        1006a210 f    CIL library: CIL module
 0001:00069390       _sqlite3FinishTrigger      1006a390 f    CIL library: CIL module
 0001:000695c0       _invalidateTempStorage     1006a5c0 f    CIL library: CIL module
 0001:00069610       _reindexTable              1006a610 f    CIL library: CIL module
 0001:000696a0       _sqlite3CodeDropTable      1006a6a0 f    CIL library: CIL module
 0001:000698e0       _detachFunc                1006a8e0 f    CIL library: CIL module
 0001:00069ad0       _attachFunc                1006aad0 f    CIL library: CIL module
 0001:0006a120       _sqlite3Analyze            1006b120 f    CIL library: CIL module
 0001:0006a2e0       _sqlite3ExprIfTrue         1006b2e0 f    CIL library: CIL module
 0001:0006a630       _sqlite3VdbeFreeCursor     1006b630 f    CIL library: CIL module
 0001:0006a680       _sqlite3VdbeFrameDelete    1006b680 f    CIL library: CIL module
 0001:0006a820       _sqlite3BtreePutData       1006b820 f    CIL library: CIL module
 0001:0006a870       _btreeDropTable            1006b870 f    CIL library: CIL module
 0001:0006aa70       _sqlite3BtreeInsert        1006ba70 f    CIL library: CIL module
 0001:0006ac80       _sqlite3BtreePrevious      1006bc80 f    CIL library: CIL module
 0001:0006add0       _sqlite3BtreeNext          1006bdd0 f    CIL library: CIL module
 0001:0006af00       _sqlite3BtreeData          1006bf00 f    CIL library: CIL module
 0001:0006af40       _sqlite3BtreeCommitPhaseOne 1006bf40 f    CIL library: CIL module
 0001:0006afe0       _sqlite3BtreeCursorHasMoved 1006bfe0 f    CIL library: CIL module
 0001:0006b040       _changeTempStorage         1006c040 f    CIL library: CIL module
 0001:0006b0b0       _sqlite3GenerateConstraintChecks 1006c0b0 f    CIL library: CIL module
 0001:0006c520       _reindexDatabases          1006d520 f    CIL library: CIL module
 0001:0006c580       _sqlite3Attach             1006d580 f    CIL library: CIL module
 0001:0006c5a0       _sqlite3Detach             1006d5a0 f    CIL library: CIL module
 0001:0006c5c0       _sqlite3ExprIfFalse        1006d5c0 f    CIL library: CIL module
 0001:0006c910       _sqlite3ExprCodeTarget     1006d910 f    CIL library: CIL module
 0001:0006d720       _allocateCursor            1006e720 f    CIL library: CIL module
 0001:0006d7e0       _sqlite3VdbeCursorMoveto   1006e7e0 f    CIL library: CIL module
 0001:0006d890       _vdbeCommit                1006e890 f    CIL library: CIL module
 0001:0006df80       _closeAllCursors           1006ef80 f    CIL library: CIL module
 0001:0006e0b0       _resolveP2Values           1006f0b0 f    CIL library: CIL module
 0001:0006e1a0       _sqlite3VdbeMemFromBtree   1006f1a0 f    CIL library: CIL module
 0001:0006ebd0       _sqlite3BtreeDropTable     1006fbd0 f    CIL library: CIL module
 0001:0006ec20       _sqlite3BtreeDelete        1006fc20 f    CIL library: CIL module
 0001:0006ee70       _sqlite3BtreeCommit        1006fe70 f    CIL library: CIL module
 0001:0006f220       _codeEqualityTerm          10070220 f    CIL library: CIL module
 0001:0006f390       _isLikeOrGlob              10070390 f    CIL library: CIL module
 0001:0006f5a0       _schemaIsValid             100705a0 f    CIL library: CIL module
 0001:0006f870       _sqlite3Pragma             10070870 f    CIL library: CIL module
 0001:00071910       _sqlite3Reindex            10072910 f    CIL library: CIL module
 0001:00071a90       _evalConstExpr             10072a90 f    CIL library: CIL module
 0001:00071bc0       _sqlite3VdbeIdxKeyCompare  10072bc0 f    CIL library: CIL module
 0001:00071ca0       _sqlite3VdbeIdxRowid       10072ca0 f    CIL library: CIL module
 0001:00071e00       _sqlite3VdbeHalt           10072e00 f    CIL library: CIL module
 0001:000720e0       _sqlite3VdbeMakeReady      100730e0 f    CIL library: CIL module
 0001:000723f0       _sqlite3VdbeTakeOpArray    100733f0 f    CIL library: CIL module
 0001:00072420       _sqlite3BtreeCopyFile      10073420 f    CIL library: CIL module
 0001:00072560       _codeAllEqualityTerms      10073560 f    CIL library: CIL module
 0001:00072820       _exprAnalyze               10073820 f    CIL library: CIL module
 0001:000730c0       _exprAnalyzeAll            100740c0 f    CIL library: CIL module
 0001:000730f0       _sqlite3FinishCoding       100740f0 f    CIL library: CIL module
 0001:000733a0       _sqlite3ExprCodeConstants  100743a0 f    CIL library: CIL module
 0001:000733e0       _sqlite3VdbeReset          100743e0 f    CIL library: CIL module
 0001:00073550       _codeOneLoopStart          10074550 f    CIL library: CIL module
 0001:00074990       _sqlite3VdbeFinalize       10075990 f    CIL library: CIL module
 0001:00074a00       _sqlite3WhereBegin         10075a00 f    CIL library: CIL module
 0001:00075470       _vacuumFinalize            10076470 f    CIL library: CIL module
 0001:000754a0       _sqlite3Select             100764a0 f    CIL library: CIL module
 0001:00076f20       _fkScanChildren            10077f20 f    CIL library: CIL module
 0001:00077440       _sqlite3MaterializeView    10078440 f    CIL library: CIL module
 0001:000775a0       _sqlite3EndTable           100785a0 f    CIL library: CIL module
 0001:000779a0       _blobReadWrite             100789a0 f    CIL library: CIL module
 0001:00077b50       _rtreeRelease              10078b50 f    CIL library: CIL module
 0001:00077bf0       _fts3auxDisconnectMethod   10078bf0 f    CIL library: CIL module
 0001:00077c40       _fts3DisconnectMethod      10078c40 f    CIL library: CIL module
 0001:00077cd0       _updateVirtualTable        10078cd0 f    CIL library: CIL module
 0001:000782b0       _sqlite3FkCheck            100792b0 f    CIL library: CIL module
 0001:00078830       _sqlite3CreateView         10079830 f    CIL library: CIL module
 0001:00078da0       _rtreeDisconnect           10079da0 f    CIL library: CIL module
 0001:00078db0       _sqlite3Fts3SegReaderFree  10079db0 f    CIL library: CIL module
 0001:00078df0       _fts3SegReaderSetEof       10079df0 f    CIL library: CIL module
 0001:00078e20       _fts3SegReaderIncrRead     10079e20 f    CIL library: CIL module
 0001:00078ea0       _sqlite3Fts3SegmentsClose  10079ea0 f    CIL library: CIL module
 0001:00078ec0       _fts3SegReaderCursorAppend 10079ec0 f    CIL library: CIL module
 0001:00078f30       _sqlite3Update             10079f30 f    CIL library: CIL module
 0001:0007ac10       _sqlite3Insert             1007bc10 f    CIL library: CIL module
 0001:0007bed0       _sqlite3Fts3SegReaderFinish 1007ced0 f    CIL library: CIL module
 0001:0007bf60       _fts3SegReaderRequire      1007cf60 f    CIL library: CIL module
 0001:0007c040       _fts3auxCloseMethod        1007d040 f    CIL library: CIL module
 0001:0007c0a0       _fts3SegReaderCursorFree   1007d0a0 f    CIL library: CIL module
 0001:0007c0c0       _codeTriggerProgram        1007d0c0 f    CIL library: CIL module
 0001:0007c290       _fts3SegReaderNextDocid    1007d290 f    CIL library: CIL module
 0001:0007c4a0       _fts3SegReaderFirstDocid   1007d4a0 f    CIL library: CIL module
 0001:0007c520       _sqlite3Fts3EvalPhraseCleanup 1007d520 f    CIL library: CIL module
 0001:0007c5a0       _codeRowTrigger            1007d5a0 f    CIL library: CIL module
 0001:0007c8b0       _sqlite3Fts3MsrIncrNext    1007d8b0 f    CIL library: CIL module
 0001:0007ca20       _sqlite3Fts3ExprFree       1007da20 f    CIL library: CIL module
 0001:0007ca70       _fts3ExprParse             1007da70 f    CIL library: CIL module
 0001:0007cd20       _fts3EvalPhraseNext        1007dd20 f    CIL library: CIL module
 0001:0007ce50       _fts3CloseMethod           1007de50 f    CIL library: CIL module
 0001:0007ced0       _getRowTrigger             1007ded0 f    CIL library: CIL module
 0001:0007cf20       _sqlite3Fts3ExprParse      1007df20 f    CIL library: CIL module
 0001:0007cfd0       _fts3EvalNextRow           1007dfd0 f    CIL library: CIL module
 0001:0007d320       _sqlite3CodeRowTriggerDirect 1007e320 f    CIL library: CIL module
 0001:0007d430       _sqlite3CodeRowTrigger     1007e430 f    CIL library: CIL module
 0001:0007d4a0       _sqlite3GenerateRowDelete  1007e4a0 f    CIL library: CIL module
 0001:0007d7c0       _sqlite3DeleteFrom         1007e7c0 f    CIL library: CIL module
 0001:0007dc90       _sqlite3FkDropTable        1007ec90 f    CIL library: CIL module
 0001:0007de60       _sqlite3DropTable          1007ee60 f    CIL library: CIL module
 0001:0007e090       _yy_reduce                 1007f090 f    CIL library: CIL module
 0001:000809a0       _sqlite3Parser             100819a0 f    CIL library: CIL module
 0001:00080a90       _sqlite3RunParser          10081a90 f    CIL library: CIL module
 0001:00081030       _sqlite3Prepare            10082030 f    CIL library: CIL module
 0001:000813d0       _fts3auxConnectMethod      100823d0 f    CIL library: CIL module
 0001:000814f0       _fts3DeclareVtab           100824f0 f    CIL library: CIL module
 0001:000815c0       _sqlite3LockAndPrepare     100825c0 f    CIL library: CIL module
 0001:00081690       _sqlite3Prepare16          10082690 f    CIL library: CIL module
 0001:000817f0       _sqlite3Reprepare          100827f0 f    CIL library: CIL module
 0001:00081860       _sqlite3InitCallback       10082860 f    CIL library: CIL module
 0001:00081a80       _loadStat3                 10082a80 f    CIL library: CIL module
 0001:00081f90       _fts3SqlStmt               10082f90 f    CIL library: CIL module
 0001:00082200       _fts3CursorSeekStmt        10083200 f    CIL library: CIL module
 0001:00082260       _fts3ContentColumns        10083260 f    CIL library: CIL module
 0001:00082490       _execSql                   10083490 f    CIL library: CIL module
 0001:00082580       _sqlite3AnalysisLoad       10083580 f    CIL library: CIL module
 0001:00082710       _sqlite3Fts3AllSegdirs     10083710 f    CIL library: CIL module
 0001:00082870       _execExecSql               10083870 f    CIL library: CIL module
 0001:000829f0       _sqlite3RunVacuum          100839f0 f    CIL library: CIL module
 0001:00082d60       _sqlite3VdbeExec           10083d60 f    CIL library: CIL module
 0001:00088350       _sqlite3Step               10089350 f    CIL library: CIL module
 0001:00088790       _getIntFromStmt            10089790 f    CIL library: CIL module
 0001:00088850       _newRowid                  10089850 f    CIL library: CIL module
 0001:000888e0       _parentWrite               100898e0 f    CIL library: CIL module
 0001:00088940       _rowidWrite                10089940 f    CIL library: CIL module
 0001:000889a0       _nodeWrite                 100899a0 f    CIL library: CIL module
 0001:00088a60       _nodeAcquire               10089a60 f    CIL library: CIL module
 0001:00088c60       _fts3IncrmergeHintLoad     10089c60 f    CIL library: CIL module
 0001:00088d20       _fts3IncrmergeHintStore    10089d20 f    CIL library: CIL module
 0001:00088d90       _fts3RepackSegdirLevel     10089d90 f    CIL library: CIL module
 0001:00089090       _fts3RemoveSegdirEntry     1008a090 f    CIL library: CIL module
 0001:00089100       _fts3IncrmergeOutputIdx    1008a100 f    CIL library: CIL module
 0001:000891d0       _fts3IsAppendable          1008a1d0 f    CIL library: CIL module
 0001:00089230       _fts3IncrmergeCsr          1008a230 f    CIL library: CIL module
 0001:000894a0       _fts3UpdateDocTotals       1008a4a0 f    CIL library: CIL module
 0001:000896b0       _fts3InsertDocsize         1008a6b0 f    CIL library: CIL module
 0001:00089790       _fts3DeleteSegment         1008a790 f    CIL library: CIL module
 0001:000897f0       _fts3SegmentMaxLevel       1008a7f0 f    CIL library: CIL module
 0001:00089930       _fts3IsEmpty               1008a930 f    CIL library: CIL module
 0001:000899f0       _fts3WriteSegdir           1008a9f0 f    CIL library: CIL module
 0001:00089aa0       _sqlite3Fts3MaxLevel       1008aaa0 f    CIL library: CIL module
 0001:00089b60       _fts3WriteSegment          1008ab60 f    CIL library: CIL module
 0001:00089bd0       _fts3AllocateSegdirIdx     1008abd0 f    CIL library: CIL module
 0001:00089cf0       _fts3InsertData            1008acf0 f    CIL library: CIL module
 0001:00089df0       _sqlite3Fts3ReadLock       1008adf0 f    CIL library: CIL module
 0001:00089e50       _fts3SqlExec               1008ae50 f    CIL library: CIL module
 0001:00089e90       _sqlite3Fts3SelectDoctotal 1008ae90 f    CIL library: CIL module
 0001:00089f80       _fts3SelectDocsize         1008af80 f    CIL library: CIL module
 0001:0008a070       _fts3EvalAverageDocsize    1008b070 f    CIL library: CIL module
 0001:0008a170       _fts3CursorSeek            1008b170 f    CIL library: CIL module
 0001:0008a200       _fts3DatabasePageSize      1008b200 f    CIL library: CIL module
 0001:0008a890       _blobSeekToRow             1008b890 f    CIL library: CIL module
 0001:0008aa20       _getNodeSize               1008ba20 f    CIL library: CIL module
 0001:0008aac0       _rtreeSqlInit              1008bac0 f    CIL library: CIL module
 0001:0008abf0       _rtreeRename               1008bbf0 f    CIL library: CIL module
 0001:0008ac50       _fixLeafParent             1008bc50 f    CIL library: CIL module
 0001:0008adb0       _findLeafNode              1008bdb0 f    CIL library: CIL module
 0001:0008aea0       _rtreeDestroy              1008bea0 f    CIL library: CIL module
 0001:0008af00       _nodeRelease               1008bf00 f    CIL library: CIL module
 0001:0008af70       _fts3MatchinfoSelectDoctotal 1008bf70 f    CIL library: CIL module
 0001:0008afe0       _fts3IncrmergeWriter       1008bfe0 f    CIL library: CIL module
 0001:0008b1c0       _fts3IncrmergeRelease      1008c1c0 f    CIL library: CIL module
 0001:0008b440       _fts3IncrmergePush         1008c440 f    CIL library: CIL module
 0001:0008b760       _fts3DeleteSegdir          1008c760 f    CIL library: CIL module
 0001:0008b920       _fts3SegWriterAdd          1008c920 f    CIL library: CIL module
 0001:0008bc40       _fts3NodeWrite             1008cc40 f    CIL library: CIL module
 0001:0008bd60       _fts3DeleteAll             1008cd60 f    CIL library: CIL module
 0001:0008be80       _sqlite3Fts3SelectDocsize  1008ce80 f    CIL library: CIL module
 0001:0008bea0       _fts3EvalTestDeferredAndNear 1008cea0 f    CIL library: CIL module
 0001:0008bf20       _fts3ColumnMethod          1008cf20 f    CIL library: CIL module
 0001:0008c0a0       _fts3DbExec                1008d0a0 f    CIL library: CIL module
 0001:0008c290       _sqlite3InitOne            1008d290 f    CIL library: CIL module
 0001:0008cfe0       _rtreeInit                 1008dfe0 f    CIL library: CIL module
 0001:0008d270       _removeNode                1008e270 f    CIL library: CIL module
 0001:0008d380       _updateMapping             1008e380 f    CIL library: CIL module
 0001:0008d3f0       _ChooseLeaf                1008e3f0 f    CIL library: CIL module
 0001:0008d6c0       _descendToCell             1008e6c0 f    CIL library: CIL module
 0001:0008d800       _rtreeClose                1008e800 f    CIL library: CIL module
 0001:0008d830       _rtreeConnect              1008e830 f    CIL library: CIL module
 0001:0008d860       _rtreeCreate               1008e860 f    CIL library: CIL module
 0001:0008d890       _fts3IncrmergeAppend       1008e890 f    CIL library: CIL module
 0001:0008da70       _fts3SegWriterFlush        1008ea70 f    CIL library: CIL module
 0001:0008db70       _sqlite3Fts3ReadBlock      1008eb70 f    CIL library: CIL module
 0001:0008dcc0       _fts3EvalNext              1008ecc0 f    CIL library: CIL module
 0001:0008dd50       _fts3NextMethod            1008ed50 f    CIL library: CIL module
 0001:0008de20       _fts3SelectLeaf            1008ee20 f    CIL library: CIL module
 0001:0008df50       _sqlite3Fts3CreateStatTable 1008ef50 f    CIL library: CIL module
 0001:0008df80       _fts3DestroyMethod         1008ef80 f    CIL library: CIL module
 0001:0008e020       _sqlite3Init               1008f020 f    CIL library: CIL module
 0001:0008e110       _Reinsert                  1008f110 f    CIL library: CIL module
 0001:0008e630       _deleteCell                1008f630 f    CIL library: CIL module
 0001:0008e6d0       _SplitNode                 1008f6d0 f    CIL library: CIL module
 0001:0008ed20       _rtreeFilter               1008fd20 f    CIL library: CIL module
 0001:0008ef40       _rtreeNext                 1008ff40 f    CIL library: CIL module
 0001:0008f130       _fts3DoAutoincrmerge       10090130 f    CIL library: CIL module
 0001:0008f1f0       _fts3TruncateSegment       100901f0 f    CIL library: CIL module
 0001:0008f5d0       _fts3IncrmergeLoad         100905d0 f    CIL library: CIL module
 0001:0008fb70       _sqlite3Fts3MsrOvfl        10090b70 f    CIL library: CIL module
 0001:0008fc30       _fts3SegReaderNext         10090c30 f    CIL library: CIL module
 0001:0008fe30       _fts3EvalTokenCosts        10090e30 f    CIL library: CIL module
 0001:0008ff10       _fts3SegReaderCursor       10090f10 f    CIL library: CIL module
 0001:000907d0       _fts3CreateTables          100917d0 f    CIL library: CIL module
 0001:00090c60       _rtreeInsertCell           10091c60 f    CIL library: CIL module
 0001:00090d60       _fts3IncrmergeChomp        10091d60 f    CIL library: CIL module
 0001:00090f00       _sqlite3Fts3SegReaderStep  10091f00 f    CIL library: CIL module
 0001:00091530       _fts3SegReaderStart        10092530 f    CIL library: CIL module
 0001:00091640       _fts3auxNextMethod         10092640 f    CIL library: CIL module
 0001:000918e0       _fts3SegReaderCursorAddZero 100928e0 f    CIL library: CIL module
 0001:00091900       _sqlite3Fts3SegReaderCursor 10092900 f    CIL library: CIL module
 0001:00091940       _fts3InitVtab              10092940 f    CIL library: CIL module
 0001:00092290       _reinsertNodeContent       10093290 f    CIL library: CIL module
 0001:00092330       _sqlite3Fts3MsrIncrStart   10093330 f    CIL library: CIL module
 0001:00092490       _sqlite3Fts3SegReaderStart 10093490 f    CIL library: CIL module
 0001:000924b0       _fts3auxFilterMethod       100934b0 f    CIL library: CIL module
 0001:00092650       _fts3TermSelect            10093650 f    CIL library: CIL module
 0001:00092790       _fts3TermSegReaderCursor   10093790 f    CIL library: CIL module
 0001:00092970       _fts3CreateMethod          10093970 f    CIL library: CIL module
 0001:000929a0       _fts3ConnectMethod         100939a0 f    CIL library: CIL module
 0001:000929d0       _rtreeDeleteRowid          100939d0 f    CIL library: CIL module
 0001:00092c80       _fts3ChecksumIndex         10093c80 f    CIL library: CIL module
 0001:00092ea0       _sqlite3Fts3Incrmerge      10093ea0 f    CIL library: CIL module
 0001:00093350       _fts3SegmentMerge          10094350 f    CIL library: CIL module
 0001:00093590       _sqlite3Fts3InitAux        10094590 f    CIL library: CIL module
 0001:000935b0       _fts3EvalSelectDeferred    100945b0 f    CIL library: CIL module
 0001:000937c0       _fts3EvalPhraseLoad        100947c0 f    CIL library: CIL module
 0001:00093840       _fts3EvalAllocateReaders   10094840 f    CIL library: CIL module
 0001:00093900       _sqlite3Fts3Init           10094900 f    CIL library: CIL module
 0001:00093a70       _openDatabase              10094a70 f    CIL library: CIL module
 0001:00093e60       _rtreeUpdate               10094e60 f    CIL library: CIL module
 0001:000940c0       _fts3IntegrityCheck        100950c0 f    CIL library: CIL module
 0001:000948b0       _fts3DoIncrmerge           100958b0 f    CIL library: CIL module
 0001:00094990       _fts3DoOptimize            10095990 f    CIL library: CIL module
 0001:00094b70       _sqlite3Fts3PendingTermsFlush 10095b70 f    CIL library: CIL module
 0001:00094cb0       _fts3PendingTermsDocid     10095cb0 f    CIL library: CIL module
 0001:00094d10       _fts3EvalPhraseStart       10095d10 f    CIL library: CIL module
 0001:00094d80       _fts3RenameMethod          10095d80 f    CIL library: CIL module
 0001:00094e40       _fts3SyncMethod            10095e40 f    CIL library: CIL module
 0001:00095020       _sqlite3Fts3Optimize       10096020 f    CIL library: CIL module
 0001:000950c0       _fts3DoIntegrityCheck      100960c0 f    CIL library: CIL module
 0001:000950f0       _fts3DoRebuild             100960f0 f    CIL library: CIL module
 0001:00095630       _fts3DeleteTerms           10096630 f    CIL library: CIL module
 0001:000957b0       _fts3EvalRestart           100967b0 f    CIL library: CIL module
 0001:00095840       _fts3EvalStartReaders      10096840 f    CIL library: CIL module
 0001:00095900       _fts3SavepointMethod       10096900 f    CIL library: CIL module
 0001:00095920       _fts3OptimizeFunc          10096920 f    CIL library: CIL module
 0001:00095a20       _fts3DeleteByRowid         10096a20 f    CIL library: CIL module
 0001:00095b20       _fts3SpecialInsert         10096b20 f    CIL library: CIL module
 0001:00095c30       _sqlite3Fts3EvalPhrasePoslist 10096c30 f    CIL library: CIL module
 0001:00095ef0       _fts3EvalGatherStats       10096ef0 f    CIL library: CIL module
 0001:00096220       _fts3EvalStart             10097220 f    CIL library: CIL module
 0001:00096380       _fts3FilterMethod          10097380 f    CIL library: CIL module
 0001:000965d0       _fts3ExprTermOffsetInit    100975d0 f    CIL library: CIL module
 0001:00096660       _fts3MatchinfoLcs          10097660 f    CIL library: CIL module
 0001:00096870       _fts3ExprLocalHitsCb       10097870 f    CIL library: CIL module
 0001:00096910       _fts3SnippetFindPositions  10097910 f    CIL library: CIL module
 0001:00096980       _sqlite3Fts3UpdateMethod   10097980 f    CIL library: CIL module
 0001:00096c40       _sqlite3Fts3EvalPhraseStats 10097c40 f    CIL library: CIL module
 0001:00096cd0       _fts3UpdateMethod          10097cd0 f    CIL library: CIL module
 0001:00096cf0       _sqlite3Fts3Offsets        10097cf0 f    CIL library: CIL module
 0001:000971d0       _fts3ExprGlobalHitsCb      100981d0 f    CIL library: CIL module
 0001:00097200       _fts3BestSnippet           10098200 f    CIL library: CIL module
 0001:000973c0       _fts3OffsetsFunc           100983c0 f    CIL library: CIL module
 0001:00097410       _sqlite3Fts3Snippet        10098410 f    CIL library: CIL module
 0001:00097d40       _fts3MatchinfoValues       10098d40 f    CIL library: CIL module
 0001:000980f0       _fts3SnippetFunc           100990f0 f    CIL library: CIL module
 0001:000982a0       _fts3GetMatchinfo          100992a0 f    CIL library: CIL module
 0001:00098480       _sqlite3Fts3Matchinfo      10099480 f    CIL library: CIL module
 0001:000986e0       _fts3MatchinfoFunc         100996e0 f    CIL library: CIL module
 0001:00098730       _fts3FindFunctionMethod    10099730 f    CIL library: CIL module
 0001:00098d3e       _has_osfxsr_set            10099d3e f   MSVCRT:cpu_disp.obj

 Exports

  ordinal    name

        1    _sqlite3_activate_see
               exported name: sqlite3_activate_see
        2    _sqlite3_aggregate_context
               exported name: sqlite3_aggregate_context
        3    _sqlite3_aggregate_count
               exported name: sqlite3_aggregate_count
        4    _sqlite3_auto_extension
               exported name: sqlite3_auto_extension
        5    _sqlite3_backup_finish
               exported name: sqlite3_backup_finish
        6    _sqlite3_backup_init
               exported name: sqlite3_backup_init
        7    _sqlite3_backup_pagecount
               exported name: sqlite3_backup_pagecount
        8    _sqlite3_backup_remaining
               exported name: sqlite3_backup_remaining
        9    _sqlite3_backup_step
               exported name: sqlite3_backup_step
       10    _sqlite3_bind_blob
               exported name: sqlite3_bind_blob
       11    _sqlite3_bind_double
               exported name: sqlite3_bind_double
       12    _sqlite3_bind_double_interop@12
       13    _sqlite3_bind_int
               exported name: sqlite3_bind_int
       14    _sqlite3_bind_int64
               exported name: sqlite3_bind_int64
       15    _sqlite3_bind_int64_interop@12
       16    _sqlite3_bind_null
               exported name: sqlite3_bind_null
       17    _sqlite3_bind_parameter_count
               exported name: sqlite3_bind_parameter_count
       18    _sqlite3_bind_parameter_index
               exported name: sqlite3_bind_parameter_index
       19    _sqlite3_bind_parameter_name
               exported name: sqlite3_bind_parameter_name
       20    _sqlite3_bind_parameter_name_interop@12
       21    _sqlite3_bind_text
               exported name: sqlite3_bind_text
       22    _sqlite3_bind_text16
               exported name: sqlite3_bind_text16
       23    _sqlite3_bind_value
               exported name: sqlite3_bind_value
       24    _sqlite3_bind_zeroblob
               exported name: sqlite3_bind_zeroblob
       25    _sqlite3_blob_bytes
               exported name: sqlite3_blob_bytes
       26    _sqlite3_blob_close
               exported name: sqlite3_blob_close
       27    _sqlite3_blob_open
               exported name: sqlite3_blob_open
       28    _sqlite3_blob_read
               exported name: sqlite3_blob_read
       29    _sqlite3_blob_reopen
               exported name: sqlite3_blob_reopen
       30    _sqlite3_blob_write
               exported name: sqlite3_blob_write
       31    _sqlite3_busy_handler
               exported name: sqlite3_busy_handler
       32    _sqlite3_busy_timeout
               exported name: sqlite3_busy_timeout
       33    _sqlite3_changes
               exported name: sqlite3_changes
       34    _sqlite3_clear_bindings
               exported name: sqlite3_clear_bindings
       35    _sqlite3_close
               exported name: sqlite3_close
       36    _sqlite3_close_interop@4
       37    _sqlite3_close_v2
               exported name: sqlite3_close_v2
       38    _sqlite3_collation_needed
               exported name: sqlite3_collation_needed
       39    _sqlite3_collation_needed16
               exported name: sqlite3_collation_needed16
       40    _sqlite3_column_blob
               exported name: sqlite3_column_blob
       41    _sqlite3_column_bytes
               exported name: sqlite3_column_bytes
       42    _sqlite3_column_bytes16
               exported name: sqlite3_column_bytes16
       43    _sqlite3_column_count
               exported name: sqlite3_column_count
       44    _sqlite3_column_database_name
               exported name: sqlite3_column_database_name
       45    _sqlite3_column_database_name16
               exported name: sqlite3_column_database_name16
       46    _sqlite3_column_database_name16_interop@12
       47    _sqlite3_column_database_name_interop@12
       48    _sqlite3_column_decltype
               exported name: sqlite3_column_decltype
       49    _sqlite3_column_decltype16
               exported name: sqlite3_column_decltype16
       50    _sqlite3_column_decltype16_interop@12
       51    _sqlite3_column_decltype_interop@12
       52    _sqlite3_column_double
               exported name: sqlite3_column_double
       53    _sqlite3_column_double_interop@12
       54    _sqlite3_column_int
               exported name: sqlite3_column_int
       55    _sqlite3_column_int64
               exported name: sqlite3_column_int64
       56    _sqlite3_column_int64_interop@12
       57    _sqlite3_column_name
               exported name: sqlite3_column_name
       58    _sqlite3_column_name16
               exported name: sqlite3_column_name16
       59    _sqlite3_column_name16_interop@12
       60    _sqlite3_column_name_interop@12
       61    _sqlite3_column_origin_name
               exported name: sqlite3_column_origin_name
       62    _sqlite3_column_origin_name16
               exported name: sqlite3_column_origin_name16
       63    _sqlite3_column_origin_name16_interop@12
       64    _sqlite3_column_origin_name_interop@12
       65    _sqlite3_column_table_name
               exported name: sqlite3_column_table_name
       66    _sqlite3_column_table_name16
               exported name: sqlite3_column_table_name16
       67    _sqlite3_column_table_name16_interop@12
       68    _sqlite3_column_table_name_interop@12
       69    _sqlite3_column_text
               exported name: sqlite3_column_text
       70    _sqlite3_column_text16
               exported name: sqlite3_column_text16
       71    _sqlite3_column_text16_interop@12
       72    _sqlite3_column_text_interop@12
       73    _sqlite3_column_type
               exported name: sqlite3_column_type
       74    _sqlite3_column_value
               exported name: sqlite3_column_value
       75    _sqlite3_commit_hook
               exported name: sqlite3_commit_hook
       76    _sqlite3_compileoption_get
               exported name: sqlite3_compileoption_get
       77    _sqlite3_compileoption_used
               exported name: sqlite3_compileoption_used
       78    _sqlite3_complete
               exported name: sqlite3_complete
       79    _sqlite3_complete16
               exported name: sqlite3_complete16
       80    _sqlite3_config
               exported name: sqlite3_config
       81    _sqlite3_context_collcompare@20
       82    _sqlite3_context_collseq@16
       83    _sqlite3_context_db_handle
               exported name: sqlite3_context_db_handle
       84    _sqlite3_create_collation
               exported name: sqlite3_create_collation
       85    _sqlite3_create_collation16
               exported name: sqlite3_create_collation16
       86    _sqlite3_create_collation_v2
               exported name: sqlite3_create_collation_v2
       87    _sqlite3_create_function
               exported name: sqlite3_create_function
       88    _sqlite3_create_function16
               exported name: sqlite3_create_function16
       89    _sqlite3_create_function_interop@36
       90    _sqlite3_create_function_v2
               exported name: sqlite3_create_function_v2
       91    _sqlite3_create_module
               exported name: sqlite3_create_module
       92    _sqlite3_create_module_v2
               exported name: sqlite3_create_module_v2
       93    _sqlite3_cursor_rowid@12
       94    _sqlite3_data_count
               exported name: sqlite3_data_count
       95    _sqlite3_data_directory
               exported name: sqlite3_data_directory
       96    _sqlite3_db_config
               exported name: sqlite3_db_config
       97    _sqlite3_db_filename
               exported name: sqlite3_db_filename
       98    _sqlite3_db_handle
               exported name: sqlite3_db_handle
       99    _sqlite3_db_mutex
               exported name: sqlite3_db_mutex
      100    _sqlite3_db_readonly
               exported name: sqlite3_db_readonly
      101    _sqlite3_db_release_memory
               exported name: sqlite3_db_release_memory
      102    _sqlite3_db_status
               exported name: sqlite3_db_status
      103    _sqlite3_declare_vtab
               exported name: sqlite3_declare_vtab
      104    _sqlite3_enable_load_extension
               exported name: sqlite3_enable_load_extension
      105    _sqlite3_enable_shared_cache
               exported name: sqlite3_enable_shared_cache
      106    _sqlite3_errcode
               exported name: sqlite3_errcode
      107    _sqlite3_errmsg
               exported name: sqlite3_errmsg
      108    _sqlite3_errmsg16
               exported name: sqlite3_errmsg16
      109    _sqlite3_errmsg_interop@8
      110    _sqlite3_exec
               exported name: sqlite3_exec
      111    _sqlite3_expired
               exported name: sqlite3_expired
      112    _sqlite3_extended_errcode
               exported name: sqlite3_extended_errcode
      113    _sqlite3_extended_result_codes
               exported name: sqlite3_extended_result_codes
      114    _sqlite3_file_control
               exported name: sqlite3_file_control
      115    _sqlite3_finalize
               exported name: sqlite3_finalize
      116    _sqlite3_finalize_interop@4
      117    _sqlite3_free
               exported name: sqlite3_free
      118    _sqlite3_free_table
               exported name: sqlite3_free_table
      119    _sqlite3_get_autocommit
               exported name: sqlite3_get_autocommit
      120    _sqlite3_get_auxdata
               exported name: sqlite3_get_auxdata
      121    _sqlite3_get_table
               exported name: sqlite3_get_table
      122    _sqlite3_global_recover
               exported name: sqlite3_global_recover
      123    _sqlite3_index_column_info_interop@32
      124    _sqlite3_initialize
               exported name: sqlite3_initialize
      125    _sqlite3_interrupt
               exported name: sqlite3_interrupt
      126    _sqlite3_key
               exported name: sqlite3_key
      127    _sqlite3_last_insert_rowid
               exported name: sqlite3_last_insert_rowid
      128    _sqlite3_libversion
               exported name: sqlite3_libversion
      129    _sqlite3_libversion_number
               exported name: sqlite3_libversion_number
      130    _sqlite3_limit
               exported name: sqlite3_limit
      131    _sqlite3_load_extension
               exported name: sqlite3_load_extension
      132    _sqlite3_log
               exported name: sqlite3_log
      133    _sqlite3_malloc
               exported name: sqlite3_malloc
      134    _sqlite3_memory_alarm
               exported name: sqlite3_memory_alarm
      135    _sqlite3_memory_highwater
               exported name: sqlite3_memory_highwater
      136    _sqlite3_memory_used
               exported name: sqlite3_memory_used
      137    _sqlite3_mprintf
               exported name: sqlite3_mprintf
      138    _sqlite3_mutex_alloc
               exported name: sqlite3_mutex_alloc
      139    _sqlite3_mutex_enter
               exported name: sqlite3_mutex_enter
      140    _sqlite3_mutex_free
               exported name: sqlite3_mutex_free
      141    _sqlite3_mutex_leave
               exported name: sqlite3_mutex_leave
      142    _sqlite3_mutex_try
               exported name: sqlite3_mutex_try
      143    _sqlite3_next_stmt
               exported name: sqlite3_next_stmt
      144    _sqlite3_open
               exported name: sqlite3_open
      145    _sqlite3_open16
               exported name: sqlite3_open16
      146    _sqlite3_open16_interop@12
      147    _sqlite3_open_interop@12
      148    _sqlite3_open_v2
               exported name: sqlite3_open_v2
      149    _sqlite3_os_end
               exported name: sqlite3_os_end
      150    _sqlite3_os_init
               exported name: sqlite3_os_init
      151    _sqlite3_overload_function
               exported name: sqlite3_overload_function
      152    _sqlite3_prepare
               exported name: sqlite3_prepare
      153    _sqlite3_prepare16
               exported name: sqlite3_prepare16
      154    _sqlite3_prepare16_interop@24
      155    _sqlite3_prepare16_v2
               exported name: sqlite3_prepare16_v2
      156    _sqlite3_prepare_interop@24
      157    _sqlite3_prepare_v2
               exported name: sqlite3_prepare_v2
      158    _sqlite3_profile
               exported name: sqlite3_profile
      159    _sqlite3_progress_handler
               exported name: sqlite3_progress_handler
      160    _sqlite3_randomness
               exported name: sqlite3_randomness
      161    _sqlite3_realloc
               exported name: sqlite3_realloc
      162    _sqlite3_rekey
               exported name: sqlite3_rekey
      163    _sqlite3_release_memory
               exported name: sqlite3_release_memory
      164    _sqlite3_reset
               exported name: sqlite3_reset
      165    _sqlite3_reset_auto_extension
               exported name: sqlite3_reset_auto_extension
      166    _sqlite3_reset_interop@4
      167    _sqlite3_result_blob
               exported name: sqlite3_result_blob
      168    _sqlite3_result_double
               exported name: sqlite3_result_double
      169    _sqlite3_result_double_interop@8
      170    _sqlite3_result_error
               exported name: sqlite3_result_error
      171    _sqlite3_result_error16
               exported name: sqlite3_result_error16
      172    _sqlite3_result_error_code
               exported name: sqlite3_result_error_code
      173    _sqlite3_result_error_nomem
               exported name: sqlite3_result_error_nomem
      174    _sqlite3_result_error_toobig
               exported name: sqlite3_result_error_toobig
      175    _sqlite3_result_int
               exported name: sqlite3_result_int
      176    _sqlite3_result_int64
               exported name: sqlite3_result_int64
      177    _sqlite3_result_int64_interop@8
      178    _sqlite3_result_null
               exported name: sqlite3_result_null
      179    _sqlite3_result_text
               exported name: sqlite3_result_text
      180    _sqlite3_result_text16
               exported name: sqlite3_result_text16
      181    _sqlite3_result_text16be
               exported name: sqlite3_result_text16be
      182    _sqlite3_result_text16le
               exported name: sqlite3_result_text16le
      183    _sqlite3_result_value
               exported name: sqlite3_result_value
      184    _sqlite3_result_zeroblob
               exported name: sqlite3_result_zeroblob
      185    _sqlite3_rollback_hook
               exported name: sqlite3_rollback_hook
      186    _sqlite3_rtree_geometry_callback
               exported name: sqlite3_rtree_geometry_callback
      187    _sqlite3_set_authorizer
               exported name: sqlite3_set_authorizer
      188    _sqlite3_set_auxdata
               exported name: sqlite3_set_auxdata
      189    _sqlite3_shutdown
               exported name: sqlite3_shutdown
      190    _sqlite3_sleep
               exported name: sqlite3_sleep
      191    _sqlite3_snprintf
               exported name: sqlite3_snprintf
      192    _sqlite3_soft_heap_limit
               exported name: sqlite3_soft_heap_limit
      193    _sqlite3_soft_heap_limit64
               exported name: sqlite3_soft_heap_limit64
      194    _sqlite3_sourceid
               exported name: sqlite3_sourceid
      195    _sqlite3_sql
               exported name: sqlite3_sql
      196    _sqlite3_status
               exported name: sqlite3_status
      197    _sqlite3_step
               exported name: sqlite3_step
      198    _sqlite3_stmt_busy
               exported name: sqlite3_stmt_busy
      199    _sqlite3_stmt_readonly
               exported name: sqlite3_stmt_readonly
      200    _sqlite3_stmt_status
               exported name: sqlite3_stmt_status
      201    _sqlite3_stricmp
               exported name: sqlite3_stricmp
      202    _sqlite3_strnicmp
               exported name: sqlite3_strnicmp
      203    _sqlite3_table_column_metadata
               exported name: sqlite3_table_column_metadata
      204    _sqlite3_table_column_metadata_interop@44
      205    _sqlite3_table_cursor@12
      206    _sqlite3_temp_directory
               exported name: sqlite3_temp_directory
      207    _sqlite3_test_control
               exported name: sqlite3_test_control
      208    _sqlite3_thread_cleanup
               exported name: sqlite3_thread_cleanup
      209    _sqlite3_threadsafe
               exported name: sqlite3_threadsafe
      210    _sqlite3_total_changes
               exported name: sqlite3_total_changes
      211    _sqlite3_trace
               exported name: sqlite3_trace
      212    _sqlite3_transfer_bindings
               exported name: sqlite3_transfer_bindings
      213    _sqlite3_update_hook
               exported name: sqlite3_update_hook
      214    _sqlite3_uri_boolean
               exported name: sqlite3_uri_boolean
      215    _sqlite3_uri_int64
               exported name: sqlite3_uri_int64
      216    _sqlite3_uri_parameter
               exported name: sqlite3_uri_parameter
      217    _sqlite3_user_data
               exported name: sqlite3_user_data
      218    _sqlite3_value_blob
               exported name: sqlite3_value_blob
      219    _sqlite3_value_bytes
               exported name: sqlite3_value_bytes
      220    _sqlite3_value_bytes16
               exported name: sqlite3_value_bytes16
      221    _sqlite3_value_double
               exported name: sqlite3_value_double
      222    _sqlite3_value_double_interop@8
      223    _sqlite3_value_int
               exported name: sqlite3_value_int
      224    _sqlite3_value_int64
               exported name: sqlite3_value_int64
      225    _sqlite3_value_int64_interop@8
      226    _sqlite3_value_numeric_type
               exported name: sqlite3_value_numeric_type
      227    _sqlite3_value_text
               exported name: sqlite3_value_text
      228    _sqlite3_value_text16
               exported name: sqlite3_value_text16
      229    _sqlite3_value_text16_interop@8
      230    _sqlite3_value_text16be
               exported name: sqlite3_value_text16be
      231    _sqlite3_value_text16le
               exported name: sqlite3_value_text16le
      232    _sqlite3_value_text_interop@8
      233    _sqlite3_value_type
               exported name: sqlite3_value_type
      234    _sqlite3_version
               exported name: sqlite3_version
      235    _sqlite3_vfs_find
               exported name: sqlite3_vfs_find
      236    _sqlite3_vfs_register
               exported name: sqlite3_vfs_register
      237    _sqlite3_vfs_unregister
               exported name: sqlite3_vfs_unregister
      238    _sqlite3_vmprintf
               exported name: sqlite3_vmprintf
      239    _sqlite3_vsnprintf
               exported name: sqlite3_vsnprintf
      240    _sqlite3_vtab_config
               exported name: sqlite3_vtab_config
      241    _sqlite3_vtab_on_conflict
               exported name: sqlite3_vtab_on_conflict
      242    _sqlite3_wal_autocheckpoint
               exported name: sqlite3_wal_autocheckpoint
      243    _sqlite3_wal_checkpoint
               exported name: sqlite3_wal_checkpoint
      244    _sqlite3_wal_checkpoint_v2
               exported name: sqlite3_wal_checkpoint_v2
      245    _sqlite3_wal_hook
               exported name: sqlite3_wal_hook
      246    _sqlite3_win32_mbcs_to_utf8
               exported name: sqlite3_win32_mbcs_to_utf8
      247    _sqlite3_win32_set_directory
               exported name: sqlite3_win32_set_directory
      248    _sqlite3_win32_sleep
               exported name: sqlite3_win32_sleep
      249    _sqlite3_win32_utf8_to_mbcs
               exported name: sqlite3_win32_utf8_to_mbcs
      250    _sqlite3_win32_write_debug
               exported name: sqlite3_win32_write_debug
